(dp0
Ves_natureworld
p1
I1
sVclubcritica
p2
I3
sVNestorHerreraST
p3
I0
sVriverasantos1
p4
I0
sVInformIncesCo
p5
I0
sVTxugass
p6
I0
sVViaducto_Piedad
p7
I0
sVhcandiaarana
p8
I0
sVRoRi1082
p9
I0
sVPTSarg
p10
I0
sVReinaVzq
p11
I0
sVjarcesus
p12
I0
sVlacasademitia
p13
I0
sVjcpooa
p14
I0
sVAtnEmer_Conagua
p15
I2
sVvalmachio
p16
I0
sVDannyLuzuriaga2
p17
I0
sVMMMaldonadoC
p18
I1
sVluisyepesb
p19
I0
sVSuan666
p20
I0
sVaviacionchile
p21
I0
sVtitiamoedo
p22
I0
sVTecni82
p23
I0
sVsrdsan
p24
I0
sVjchinoquimzo
p25
I0
sVmarthallanos
p26
I0
sVNhr_Esturirafi
p27
I0
sVsms_ecuador
p28
I0
sVHrn77Palmili
p29
I0
sVcr_hernandez
p30
I0
sVInfoAmazoniaEsp
p31
I0
sVndrescastillo
p32
I0
sVMaponcev
p33
I0
sVDocR2014
p34
I0
sVAdyaSpain
p35
I0
sVcuartovolante
p36
I0
sVTommyCabezon
p37
I-10
sVfadeawaycl
p38
I0
sVdillovaldes
p39
I0
sVcarlex_mejia
p40
I0
sVCLAUDIA53820
p41
I0
sVluisgdel87
p42
I0
sVinfopresidencia
p43
I1
sVsilvianietos3
p44
I1
sVcarmen_olvera
p45
I0
sVnilvertorres
p46
I0
sVVersoAndante_
p47
I0
sVIkerXavier2
p48
I0
sVVotanteEnojado
p49
I0
sV311Panama
p50
I1
sVElbaRoa
p51
I0
sVmuniguate
p52
I0
sVJimmyJPBD
p53
I0
sVHolyKing_
p54
I0
sVCetsaTepic
p55
I1
sVnailit_s
p56
I-1
sVSENIATINSULAR
p57
I0
sVjg3qlv
p58
I0
sVpedrogonzalvez
p59
I0
sVJosu_Orturi
p60
I0
sVRolinRuiz
p61
I0
sVcotigosci
p62
I0
sVangrivera09
p63
I0
sVruizjezer
p64
I0
sVObeyJoven
p65
I0
sVcorradobeto
p66
I0
sVcharryristmas
p67
I-1
sVjaume_piera
p68
I0
sVjcruizu
p69
I0
sVAloisioCecy
p70
I0
sVajuanagos
p71
I0
sVMundo_Municipal
p72
I0
sVrcasponte28
p73
I0
sVCNNEPrensa
p74
I0
sVOMeritello
p75
I0
sVIaruBonader
p76
I1
sVBluRadioCo
p77
I1
sVFondoAccion
p78
I1
sVabigail69793395
p79
I0
sVMyrmicinae
p80
I0
sVGacela1Gise
p81
I0
sVDanoJS_
p82
I0
sVSalinasElinor
p83
I0
sVtuh_realfrekiit
p84
I0
sVDomingoBacalao
p85
I1
sVdapina
p86
I0
sVVc_SantaMaria
p87
I0
sVsansalvador100
p88
I0
sVCanoyepes
p89
I0
sVaztekium
p90
I0
sVturymx
p91
I0
sVCuentaNo4444
p92
I0
sVleonel_GT_90
p93
I0
sVnewscaliente
p94
I0
sVtrinidadclara
p95
I-1
sVlacasaamarillaa
p96
I-1
sVtolagar3078
p97
I0
sVabdiaks
p98
I0
sVTENECESlTO
p99
I0
sVEricnav87
p100
I0
sVfauadrian
p101
I0
sVRMarquezSayun
p102
I0
sVWendoBautista1
p103
I0
sVolgag1virginia
p104
I1
sVbethymdz_
p105
I0
sVArcangelVenez
p106
I-1
sVhugosoiza
p107
I0
sVangc_01
p108
I-1
sV_psicocode
p109
I0
sVunlibraioumile
p110
I0
sVmagane88
p111
I0
sVTextoCrud0
p112
I0
sVkeansaro
p113
I0
sVvickygoncor
p114
I0
sVAndresGo29
p115
I1
sVedh2o
p116
I0
sVLetraCallejera_
p117
I0
sVVoBoPA
p118
I0
sVDaenitaGuerrero
p119
I0
sVRetweetPTY
p120
I0
sVcarlos_perola
p121
I0
sVLaVidaDeNovios
p122
I-1
sVdavid_szenfeld
p123
I0
sVLenorColombia
p124
I0
sVDiegoNarvazCepe
p125
I0
sVJLEONBENAVIDES
p126
I0
sVvalladares_leo
p127
I0
sVCorbalanXinena
p128
I0
sVFedericodipiaz1
p129
I0
sVRafael_elgenial
p130
I0
sVitsxmaru
p131
I0
sVSamantain
p132
I0
sVwilmermahecha
p133
I0
sVJusticiaPAT
p134
I1
sVSOCIALISTASYARA
p135
I0
sVCANLoja
p136
I0
sVYazChau
p137
I0
sVLucasPerSo
p138
I0
sVOye_Saqa_HD
p139
I0
sVimagenenaccion
p140
I0
sVYahoo_Espanol
p141
I0
sVaaron_river_14
p142
I0
sVsonilink
p143
I5
sVMedicaltexSac
p144
I0
sV1BelieberF
p145
I-1
sVCHISMOGRAFITO10
p146
I-2
sVscreamomusic79
p147
I0
sVJUANMOLINA1959
p148
I0
sVPilita500
p149
I0
sVEdmundoBerlanga
p150
I0
sVKarinaDelSanto1
p151
I0
sVzona3noticias
p152
I0
sVjs20041970
p153
I3
sVCasaANCanar
p154
I0
sVdjreyesa
p155
I0
sVCARMANPERCAT
p156
I0
sVCubaAntimp
p157
I0
sVFerminreynoso1
p158
I0
sVCamilaAylenR
p159
I0
sVJavierBenavid3s
p160
I1
sVgsanmiguel_ve
p161
I0
sVesoquiensabe
p162
I-6
sVgeraldine_am29
p163
I0
sVgiomxmerengue21
p164
I0
sVshirley2393
p165
I0
sVORCAChile
p166
I0
sVTrayectoenred
p167
I0
sVmcn24H
p168
I2
sVImTooChanel
p169
I-1
sVCesardarquea
p170
I0
sVlukitasUYU
p171
I0
sVJoselDuarte
p172
I0
sVel_contrapunteo
p173
I0
sVNoraimaInces
p174
I0
sVmoguel_19
p175
I0
sVvanessapetru
p176
I0
sVyeyocool
p177
I0
sVhowardjunca
p178
I0
sVMendezIrcania
p179
I0
sVSEIF_Cuenca
p180
I0
sVxavierbdn
p181
I0
sVquicosala
p182
I0
sVgeekdegafas
p183
I-1
sVtoyita_mora
p184
I0
sVDelfiiTomlinson
p185
I0
sVidaaWear
p186
I0
sVguipalemar
p187
I0
sVKikegot3Flou
p188
I0
sVFernando1998_f
p189
I0
sVANDRESAR16
p190
I0
sVmcf253
p191
I0
sVguacarabear
p192
I-10
sVLaNotiDelDia
p193
I0
sVecoVPzu
p194
I0
sVzaidmodes
p195
I1
sVmarcosb182
p196
I2
sVsrtajulss
p197
I0
sVLoreZel2016
p198
I0
sVmiguelsauza
p199
I1
sVdeterioros
p200
I0
sVClimaxNTN24
p201
I1
sVel_imberbe
p202
I0
sVmaylescano543
p203
I0
sVOFrancoTorres
p204
I2
sVbradleyrobs
p205
I0
sVsurez_javier
p206
I0
sVLosHatersDe
p207
I0
sVsofi_reyna
p208
I0
sVPreven_IIFF_CV
p209
I0
sVPedrojgp71
p210
I0
sVGILINSKYMYK1NG
p211
I0
sVdaianaalfaro
p212
I0
sVjuvargasju2
p213
I0
sVMiguelGarayM
p214
I0
sVUppdalAmerica
p215
I0
sVHornyTeenAF0
p216
I-10
sVspedroza_12
p217
I0
sVluis__pedrosa
p218
I0
sVVaPOZO
p219
I0
sVFord7GD
p220
I0
sVRenteriadiegomd
p221
I0
sVAnibalPalomitas
p222
I0
sVcontreraskylie1
p223
I0
sVecoVPCa
p224
I0
sVagustin6410
p225
I0
sVluisbremer
p226
I0
sVgregoriomirabal
p227
I0
sVBiblioteca_UNED
p228
I0
sVestiloysalsa
p229
I0
sV18fbff2024984d4
p230
I0
sVpcorrea78
p231
I5
sVromanciux
p232
I0
sVLFernandezLT
p233
I0
sVMinamPeru
p234
I1
sS'MarypazMara'
p235
I0
sVtxwnshed
p236
I-1
sVCANZamoraCh
p237
I0
sVJamiebronw
p238
I0
sVjuampymoronr
p239
I0
sVPreguntasRapida
p240
I-1
sVNURIAGALIFLORES
p241
I0
sVPCPRcandanga
p242
I0
sVGuideins
p243
I0
sVDehaneyraM
p244
I0
sVrrcarteras
p245
I0
sVestrellasycaos
p246
I-10
sVarisana11
p247
I0
sVGMVVOSUTEEB_BOL
p248
I0
sVRamsarConv
p249
I1
sVcaacosta1962
p250
I0
sVgloriafsalazar
p251
I0
sVEdwinMedinaCo
p252
I0
sVoromanvega
p253
I0
sVAlfremar227
p254
I0
sVEcoAguasPanama
p255
I0
sVMAETungurahua
p256
I0
sVGotiJordan
p257
I0
sVOscarpintomore1
p258
I0
sViztanayansi
p259
I0
sVFIDELHIDALGO
p260
I-1
sVnacion_cule
p261
I0
sVjc_pou
p262
I0
sVEstratega_23
p263
I0
sVRebecaErre
p264
I0
sVsaveldoronin191
p265
I0
sVecoDefensores
p266
I0
sVDarthpio
p267
I0
sVluminara8
p268
I0
sVTuApartamento
p269
I-1
sValvarom12
p270
I0
sVNatalia_Maarie
p271
I0
sVventa_casas_mty
p272
I-1
sVredambientaln
p273
I0
sVDanver2908
p274
I-10
sVmeliimoscoso
p275
I0
sVForbes_Mexico
p276
I0
sVJoseAGaldames
p277
I0
sVJVBarrioYungay
p278
I0
sS'PalaciosLour'
p279
I0
sVSalesianosPAL
p280
I0
sVjuaneduardo_va
p281
I0
sVinostroza_
p282
I0
sVlaverdad31456
p283
I2
sVerikrojasarenas
p284
I0
sVDiegoBastidasY
p285
I0
sVTarotDavid1
p286
I0
sVTortugafuriosa
p287
I0
sVMariana29853232
p288
I0
sVcarpediem_dia
p289
I0
sVCDGRD_Boyaca
p290
I0
sV_dreameR5_
p291
I0
sVBenjaAriasTB
p292
I0
sVFidel2461264663
p293
I0
sVjuglardelzipa
p294
I0
sVPabloCalaza
p295
I0
sVSusanaperezbrav
p296
I0
sVCLIMAMERIDA
p297
I0
sVFrancisoUbarnes
p298
I0
sVANTONIACUE
p299
I0
sVguernicatero09
p300
I0
sVNegroSereno
p301
I0
sVMireliaAT
p302
I-1
sVPVictorGomez
p303
I0
sVItalaItalac
p304
I0
sVXavierGuachamin
p305
I0
sVProarbol_Col
p306
I0
sVbrunitoaresu
p307
I0
sVddhhong
p308
I1
sVErase_this_
p309
I0
sVSoyla_MADRE
p310
I0
sVMAECanar
p311
I0
sVViajesNG
p312
I-1
sVMilangelisM
p313
I0
sVPibaCelosaFuck
p314
I-1
sVjpablopolovega
p315
I0
sVPiruAdri
p316
I0
sVailen_torres00
p317
I-1
sVarielle56781336
p318
I0
sVraad07
p319
I0
sVpamelaospina
p320
I-1
sVConagua_ValleMx
p321
I3
sVAnaMaraIniesta
p322
I0
sVsvergara
p323
I0
sVRevista_Teorema
p324
I0
sVFaunaAustralis
p325
I0
sV@BogotaBasura0
p326
I1
sVMauro_Gonzlez
p327
I0
sVDulce_dulait
p328
I0
sVmalo1969
p329
I0
sVdiradmgadcue
p330
I0
sVVeleta_Pbl
p331
I0
sVEIJarabo
p332
I0
sVDianahFarah
p333
I-1
sV_vainilla
p334
I0
sVbeav_xx
p335
I-1
sVLunaLextrange
p336
I0
sVFreshPlaza_es
p337
I0
sVmativillar
p338
I0
sVJorgeMartinezDc
p339
I0
sVPortal_Politico
p340
I1
sValejandrocate
p341
I0
sVMxPolaca
p342
I0
sVarmando_pollo
p343
I0
sVMinMujeryEG
p344
I0
sVlabescli2
p345
I0
sVrikudouantares
p346
I0
sVmagdagarciamx
p347
I0
sVsomosrevolucio2
p348
I0
sVBLKlazaro
p349
I0
sVyomairaalcivar
p350
I0
sVSoy_elCuervo
p351
I0
sVTitoBravo68
p352
I0
sV17FuegoYPasion
p353
I0
sVsoniaricalde
p354
I0
sVHugoGarcia1414
p355
I-1
sV52Marucha
p356
I0
sVTweetPrincipal
p357
I-1
sVCulturaBici
p358
I0
sVventanaspaladio
p359
I0
sVSillibertad
p360
I0
sVAidNews
p361
I0
sVsuepi44
p362
I0
sVjjgdeh
p363
I0
sVFloorDiNatale
p364
I2
sVLeonel2Fer
p365
I0
sVkarlamalo
p366
I0
sVDefiendeParamos
p367
I1
sVteletoxia
p368
I0
sVcapasenan
p369
I0
sVmajosarco2489
p370
I0
sVElsyGarrillo
p371
I0
sVfradenno1960
p372
I0
sVmaikolrojasaria
p373
I0
sVadipangracio
p374
I0
sVDevuelvanR
p375
I1
sVRMBienes
p376
I-1
sVjcpeenn
p377
I0
sVjoseperdi33
p378
I0
sVSexenio_Chiapas
p379
I0
sVsuits_luxury
p380
I-1
sVcarlosma89
p381
I0
sVEcLuisAlmeidaV
p382
I0
sVClaudiaruiz
p383
I1
sVnexosmexico
p384
I1
sVDonplanetaGuia
p385
I0
sVAnitaaVallee
p386
I0
sVLeninBoada17
p387
I1
sVadri_nstr
p388
I0
sVguanocana
p389
I0
sVRubRockin
p390
I0
sVgenperms
p391
I-10
sVpatrmarsh
p392
I0
sVSilvinaFernan
p393
I0
sVDasani_Honduras
p394
I0
sVjosecarlosclaro
p395
I0
sVHumpyDumpy5
p396
I0
sVMartinJalal
p397
I0
sVhernangiardini
p398
I0
sVNotiCordoba
p399
I0
sVMsjsEnFoto
p400
I0
sVpajerodeloeste
p401
I-10
sVmayela_marai
p402
I-1
sVmariajalopez
p403
I1
sVbenignocolmenar
p404
I0
sVMujeres_Lider
p405
I3
sVgasconmarquez
p406
I0
sVSlbJavi
p407
I0
sVAinzElisa
p408
I0
sVEmbaCubaBolivia
p409
I0
sVAbogada_gf
p410
I-1
sVAnKrel
p411
I0
sVprensaroc
p412
I0
sVitsyvsl
p413
I0
sV1996_boca
p414
I0
sVIreneMa34155824
p415
I0
sVLucisLux7
p416
I0
sVMartha_Gro
p417
I0
sVcosa_santa
p418
I0
sVAnnaGomez98
p419
I-1
sVCSocialMetepec
p420
I0
sVxdatphoriaxx
p421
I0
sVCHISMOGRAFITO3
p422
I-1
sVcafelargoideas
p423
I0
sVsydenney
p424
I0
sVJusticiaPlaneta
p425
I2
sVAlgoqueinformar
p426
I0
sVCHISMOGRAFITO5
p427
I1
sVCHISMOGRAFITO4
p428
I-2
sVGatoDumas_Mvd
p429
I0
sVCHISMOGRAFITO8
p430
I1
sVneeryls
p431
I0
sVVerofilu
p432
I1
sVRafaelBorgesV
p433
I2
sVAlevivancoE
p434
I0
sVEmmaBaubary
p435
I0
sVNataliaParraOso
p436
I0
sVNILTONRUIZ
p437
I0
sVgacal78
p438
I0
sVkpescamilla
p439
I0
sVSexencias
p440
I-1
sVkiuleblanch
p441
I0
sVnormydel
p442
I0
sValcanzandohoy
p443
I0
sV18Elecciones
p444
I0
sVpaulaverk
p445
I0
sVcar_pellegrini
p446
I1
sVmariogo810
p447
I0
sVLa_Mariucha
p448
I0
sVpedrogarciaflo3
p449
I0
sVmmolinabrand
p450
I0
sVJeseniaMera
p451
I0
sVITEPREGUNTO0
p452
I0
sVlauracartuccia
p453
I0
sVReyExplicito
p454
I0
sVKevinCambio
p455
I0
sVRock_and_Pop
p456
I0
sVhectorgrc
p457
I0
sVDiegoAgu00
p458
I0
sVLaVidaEnParejas
p459
I-1
sVSraAlejandra
p460
I0
sVzona_psv
p461
I0
sVINS_Peru
p462
I0
sVabogadofermin20
p463
I0
sVFaArevalo
p464
I0
sVPamelaGuRo
p465
I0
sVArcangelVenYara
p466
I0
sVGobMunChih
p467
I0
sVfutbolcarrasco
p468
I-1
sVtopstoriesesp
p469
I0
sVperitaaendulce
p470
I0
sVk_ro2010
p471
I0
sVluwalnoticias
p472
I0
sVeuskadisecrets
p473
I0
sVHPHArgentina
p474
I0
sVelpoliticonews
p475
I0
sVnicanorelbueno
p476
I0
sVespadaniques
p477
I0
sValcazar_miguel
p478
I0
sVTorreCavallaro
p479
I0
sVjorge_edward
p480
I1
sVYerWithMBAM
p481
I0
sVbrugesnoir
p482
I0
sVIsabelImaurera
p483
I0
sVwebhavana
p484
I0
sVBillyPSUV
p485
I0
sVCarre1Ascension
p486
I0
sVSomosLosVerdes
p487
I3
sVCAMPOSOLANGE
p488
I0
sVla_patilla
p489
I1
sVPipiZakariann
p490
I0
sVoccupytheseed
p491
I1
sVhooliganonthrun
p492
I0
sVtucuerpoaldia1
p493
I0
sVbrandsendigital
p494
I0
sVfedlosbronces
p495
I1
sVeliaschein
p496
I0
sVraficovet
p497
I0
sVSrChuzzo
p498
I0
sVIngeniero_Boss
p499
I0
sVGrupoChivite
p500
I0
sVpandaconejo
p501
I0
sVkarenavn23
p502
I-1
sVelperiodista_sv
p503
I0
sVmarianeus73
p504
I0
sVWolf_CampNou
p505
I0
sVPrensaMomento
p506
I0
sVnengosipauli
p507
I-1
sValesitoide
p508
I0
sVmend_93
p509
I-1
sVRenovatio2016
p510
I0
sS'yulianmichelro1'
p511
I-2
sVjesusgodoy38
p512
I-1
sVninobottai
p513
I0
sVMariaetorres99
p514
I0
sVNai_Aparicio
p515
I0
sVfuljunior76
p516
I0
sVErickRo37862904
p517
I0
sVJuanCruzOlveira
p518
I0
sVYayoEspasial
p519
I0
sVSara_Algaba
p520
I0
sVLaRegionHoy
p521
I0
sVdariana_yam
p522
I0
sVDiaconoOikos
p523
I0
sV__InfoMario
p524
I0
sVdelfiuriarte3
p525
I0
sVElenaMtzlara
p526
I1
sV8db92213de68427
p527
I0
sVnerakprado
p528
I-1
sVLurdesMendezArr
p529
I0
sVMayorRiqueza
p530
I-1
sVjorjota
p531
I0
sVcarogarcia1606
p532
I3
sVrcnmundo
p533
I0
sVCINHDe
p534
I0
sVWichitanahi
p535
I0
sVideasdecora
p536
I-1
sVBioEstacionR
p537
I0
sVkuchoquezada
p538
I0
sVbalookas
p539
I0
sVresinasvzla
p540
I0
sVLJosefinaAvilaM
p541
I0
sValirioprada
p542
I0
sVdlopezorellana
p543
I0
sVAkainikbel
p544
I2
sVIluvencaoficial
p545
I0
sVTweetorica
p546
I1
sVSusanQuisbert
p547
I0
sVhesnpunk
p548
I0
sVcharlosantillan
p549
I0
sVAmbioFundacion
p550
I0
sVGustavoCarrionB
p551
I0
sV_Concesionarios
p552
I-1
sVpsuv_bruzual
p553
I1
sVMOPAntofagasta
p554
I0
sVBrigittelgb
p555
I1
sVBraulioJuarez_q
p556
I0
sVChableCam
p557
I0
sVeribertohijo
p558
I0
sVnicole_hacle_1D
p559
I0
sVMisultan75
p560
I0
sVBeaDusevich
p561
I0
sVjosenorman
p562
I0
sVM_CarlaLobo
p563
I0
sVCiriaOrtegas_6
p564
I1
sVjoselevycnn
p565
I1
sVVerdeMza77
p566
I0
sVFabSala
p567
I0
sVmisionesonline
p568
I1
sVpaloma74735236
p569
I0
sVgenergea
p570
I0
sVLUKIAME
p571
I0
sVc_dot_nine
p572
I0
sVedwin770610
p573
I1
sVKiaraMaryed96
p574
I0
sVccateringg
p575
I0
sVrithaperez
p576
I0
sVviniciusok12
p577
I0
sVAntonioAmaro35
p578
I0
sVgorbachevvsevo1
p579
I0
sVfatiosblan
p580
I0
sVCockyVampire
p581
I-1
sVtlSURArgentina
p582
I0
sVTacticalSocceR
p583
I-1
sVrossanas010673
p584
I0
sVmajodemajo
p585
I0
sVmilisugeno
p586
I-1
sVideas_puebla
p587
I0
sVVanesaEsteve
p588
I-1
sVFUERZAMINERA
p589
I0
sVElvin_Jose02
p590
I0
sVEnriquePenalosa
p591
I1
sVvirginiavinti
p592
I0
sVMESCALERA577
p593
I0
sVORMSpain
p594
I-1
sVmirya_mhr
p595
I0
sVbiebsandpmore
p596
I0
sVSebabret
p597
I0
sVEscritosEnFoto
p598
I0
sVricnev01
p599
I0
sVGiovMont
p600
I0
sVsoysaraichavez
p601
I-1
sVyjra87_zulia
p602
I0
sVXplorerAbyss
p603
I0
sValextineo
p604
I1
sVjana_fte
p605
I0
sVTheBoySparkks
p606
I-10
sVCesarcastilla11
p607
I0
sVchocotortalonso
p608
I0
sVjulepev
p609
I-1
sVmin_interior
p610
I0
sVaguantefpv
p611
I0
sVdani_orp24
p612
I0
sV23fbarriosg
p613
I0
sVjordipsalvador
p614
I0
sVrrmisel
p615
I0
sVTweetSugerido
p616
I-2
sVforosaludec
p617
I0
sVRomerolagusC
p618
I0
sVtuGUAYAQUIL
p619
I0
sVTiaravaz2
p620
I0
sVjaimeporta
p621
I0
sVmarispeg
p622
I0
sVMartaLilian9
p623
I0
sVWaldBaAr
p624
I-1
sVvicman_arroyo
p625
I0
sVpsalaper
p626
I0
sVNicolsG36563567
p627
I0
sVRochiiacevedoOK
p628
I0
sVOpinionCoah
p629
I0
sVrousemania
p630
I0
sVrpopular4f
p631
I-1
sVdonjuanello
p632
I0
sVfutbolitis1020
p633
I0
sVteampalc
p634
I0
sVL4LICULON4
p635
I0
sVyllenhot1
p636
I0
sVCAN_Azuay
p637
I0
sVvacayorch
p638
I0
sVPanamaPuntoCom
p639
I0
sVGBMarcoCastro
p640
I0
sVForeroMabel
p641
I0
sVOye_bebesiTto
p642
I0
sVCarlosVargasRD
p643
I0
sVMikePMartin
p644
I0
sV365piedritas
p645
I0
sVpinosysembrados
p646
I0
sVdiegoreinhold
p647
I0
sVharolverano
p648
I0
sVCasaANEspana
p649
I0
sVJouveI
p650
I0
sV12345carlita
p651
I0
sVSantiagoSal15
p652
I0
sVvalledelcaucano
p653
I0
sVVictorvegaCH
p654
I0
sVandres_cnacento
p655
I1
sVMarco_Espadas
p656
I0
sVConecta_co
p657
I0
sVRedesEcologicas
p658
I0
sVEsmirnaRD
p659
I3
sVDelfiTroya
p660
I0
sVSISEGRA
p661
I0
sVLLuzanilla
p662
I0
sVrodochis
p663
I0
sVVSayegh
p664
I0
sVLeoGalvezBeyou
p665
I-1
sVvalledelnalon
p666
I0
sVSENIAT_SANCARL
p667
I0
sVLiova37
p668
I1
sVluistapuy007
p669
I4
sVEmanuelBrega
p670
I0
sVSkyreny
p671
I-1
sV19c91334b151455
p672
I0
sVjorcoyette
p673
I0
sVsanmiguelillo
p674
I0
sVDavid841870
p675
I0
sVEsDeSarcasmos
p676
I-1
sVPoetaintens0
p677
I0
sVyovendoonline
p678
I0
sVTwittclareando
p679
I0
sVEnithCarranco
p680
I0
sVRusia_20
p681
I1
sVamarqued
p682
I0
sVHassler_Diego
p683
I0
sVmonkasm33
p684
I0
sVrevistasoyvalle
p685
I0
sVAnais4Rios
p686
I0
sVccbunam
p687
I0
sVFoxelTerry
p688
I0
sVguayando100
p689
I0
sVCristinaUna23
p690
I0
sVingeniero0013
p691
I0
sS'UnigisALatina'
p692
I1
sVMarcosjfc7
p693
I0
sVDeboRecordarQue
p694
I-1
sVhectorgdelgadoa
p695
I0
sVaaetsia__
p696
I0
sVyoshi_toxic
p697
I0
sVMmduarte88
p698
I0
sVRinconTigrero
p699
I-1
sVAsambleaporelAg
p700
I0
sVmgabrielazul
p701
I0
sVMiningPress
p702
I0
sVpatrullaseniat
p703
I0
sVMartinVega74
p704
I0
sVearrieta
p705
I0
sVMABELNARANJO
p706
I1
sVNorma_Boyle
p707
I0
sVmonsantotribun
p708
I1
sVLudaTours
p709
I-1
sVRobertotallari1
p710
I0
sVPelocLutmila
p711
I1
sVROMANTICO_MAC
p712
I0
sVPedrioRaymundo
p713
I0
sVVIOLETAIMPACTO
p714
I0
sVpriorityespos
p715
I0
sVscabrerassp
p716
I0
sVAlondraRoss_
p717
I0
sVAS_Aragon
p718
I0
sVJohansson_Fue
p719
I1
sVwgg96
p720
I1
sVyoManaba
p721
I0
sVCodeXverde
p722
I9
sVSocialEnBogota
p723
I0
sVkikemetalk
p724
I0
sVLibrosPoetico
p725
I-1
sVelcarlosjuan
p726
I4
sVtonyohv
p727
I0
sVcaseamable
p728
I0
sVmiguelzarateh
p729
I0
sVAxiacarvallo
p730
I2
sVAlejandro_MF5
p731
I-10
sVGiannaArtemisa
p732
I0
sVbrunoarostegui
p733
I0
sVIMAGENESXTREMAS
p734
I-1
sVObjetivo03
p735
I0
sVkonovalovflego1
p736
I0
sVEmilseMartinez_
p737
I-1
sVJose_Atu_G
p738
I0
sVariasmilton112
p739
I0
sVmartinleonardob
p740
I0
sVGmzDeisy
p741
I0
sVmarcezuzu
p742
I0
sVMenyMuu
p743
I0
sVICONTEC
p744
I0
sVVerdadCuba
p745
I0
sVbm_teatro
p746
I-1
sVsimeimporta2
p747
I0
sVBullfigther80
p748
I-1
sVwisthonchilecl
p749
I0
sVfabiansomoza
p750
I0
sVBarrio_Yungay
p751
I0
sV58andrad
p752
I0
sVCoty_Fritzen
p753
I-1
sVcruisingact20
p754
I0
sVadiro61
p755
I1
sVMayaKaanTravel
p756
I0
sVJordypg10
p757
I0
sVjulioenriquezm
p758
I1
sVDiegopriano
p759
I0
sVValentinOtero_e
p760
I-1
sVTUBFC
p761
I-1
sVNoviossCursis
p762
I0
sVrichardprez10
p763
I0
sVSerioValencia
p764
I-10
sVMizar_21
p765
I0
sVAthinaMarturet
p766
I-1
sVMasGuasare
p767
I0
sVRiveGV
p768
I0
sVAlex1976medinaT
p769
I0
sVisnardomarchan
p770
I0
sVpamemar1
p771
I0
sVBetiana_226
p772
I0
sVMylifeisZuribau
p773
I0
sVsandwich_20
p774
I0
sVCrudoEcuador
p775
I0
sVApuntador7
p776
I0
sVPepeNava20
p777
I0
sVsttydiagoals
p778
I0
sVCasaANElOro
p779
I0
sVCOCOvlay
p780
I0
sVnrioja
p781
I1
sVdsenunez
p782
I1
sVfundacionnatura
p783
I2
sVCarittoPDC
p784
I0
sVTweeterazos
p785
I0
sVEzeRuizzzz
p786
I0
sVssandovali
p787
I2
sVPacoZeaCom
p788
I0
sVCECastaneda
p789
I1
sVAmecider
p790
I0
sVenlacecoahmx
p791
I0
sVpaucamcu
p792
I0
sVadeltor2
p793
I-1
sVBetto_Nunez
p794
I-1
sVcorazondetintas
p795
I0
sVTio_conejo
p796
I1
sVjessifressg2084
p797
I0
sVconycamelo
p798
I1
sVcintiasanchez51
p799
I0
sVsainzbrea
p800
I0
sVRdeRuido
p801
I0
sVCorporacionCVS
p802
I0
sVSiTApurasQGanas
p803
I-1
sVMedio_AmbienteS
p804
I0
sVDrxgonMistress
p805
I-1
sVPATOGATIA
p806
I0
sVvivivelm43
p807
I0
sVRJAColombia
p808
I7
sVCristianAlegre_
p809
I0
sVMicaIbbarra
p810
I0
sVJonathaanbaron
p811
I0
sVbrunoferretto
p812
I0
sVportaldelcampo_
p813
I0
sVBerolar7
p814
I0
sVpaulodeta
p815
I0
sVTuEnLaNoticia
p816
I0
sVnotiwebon
p817
I0
sV_arquitectos_
p818
I-1
sVPerlaCGarcia99
p819
I-1
sVToyoFoods
p820
I-1
sVdsantin
p821
I0
sVSoyelayatola
p822
I-1
sVDarwichgE
p823
I0
sVifuelright
p824
I0
sVDiabla1251
p825
I0
sVRisaMiguel
p826
I0
sVEugenioCosta_K
p827
I0
sVYNoSeDigaMas
p828
I-1
sVInforma_Turismo
p829
I-1
sVVictorGonz54
p830
I0
sVequipoverdeaful
p831
I0
sVDemocritoII
p832
I0
sVAlexCorralesCR
p833
I0
sVpatriciahermin5
p834
I0
sVHermannSoberon
p835
I0
sVmartosalgado
p836
I0
sVnorma22flores
p837
I0
sVecogestos
p838
I2
sVcienaguera_roja
p839
I0
sVdabiach
p840
I0
sVNnyGo
p841
I0
sVjimem19
p842
I-1
sVLoqueras_2015
p843
I-1
sVuniversal_dos
p844
I0
sVDami_Benitez
p845
I0
sVajmontilla27
p846
I-1
sVFundacionMigres
p847
I0
sVMinAmbienteCo
p848
I3
sVTammyL_Lewis
p849
I0
sVgisetinaromero1
p850
I0
sVarcheffect421
p851
I0
sVkimontare
p852
I0
sVLetraDirecta
p853
I0
sVLalylalita17
p854
I0
sVJoseFantoche
p855
I0
sVZespri_es
p856
I1
sVcachodehur
p857
I0
sVicimag
p858
I-1
sVCONAGUA_Colima
p859
I3
sVThePunisherTW
p860
I0
sVA_Coral002
p861
I0
sVLulyGutierrez98
p862
I0
sVmarii_7u7
p863
I0
sVPoliciaservidor
p864
I0
sVstargreenpretty
p865
I0
sVtucuerpoaldia28
p866
I0
sVDEC_UEES
p867
I0
sVCasaANNapo
p868
I0
sVmrgonorriento
p869
I0
sVmgcipo
p870
I0
sVJavierDrovetto
p871
I0
sVdjavierenrique
p872
I0
sVdortegaofficial
p873
I0
sVmaxirodriguez95
p874
I0
sVsilgtamayo
p875
I0
sVIDLADS
p876
I1
sVsmrf50
p877
I0
sVoscar_vicent1
p878
I0
sVSoolSanchez8
p879
I0
sV11Giron
p880
I-1
sVmabomaPOG
p881
I0
sVAlc_Valencia
p882
I0
sVquegustodecocin
p883
I0
sVSantiagoBio
p884
I0
sVmlaffertte
p885
I0
sVfernandofarfanX
p886
I0
sVInstitutoSINCHI
p887
I1
sVSRYCOL
p888
I0
sVMAE_PichinchaDP
p889
I0
sVgoveme
p890
I0
sVcanalTVC
p891
I0
sVMarioTocalini
p892
I0
sVmariav_agroeco
p893
I0
sVGastoonAndres
p894
I0
sVRADIOAUSTRAL2
p895
I0
sVmarinomares
p896
I0
sVhugotejeda
p897
I0
sVnicosuuno2012
p898
I0
sVEsDeUtilidad
p899
I1
sVnicoletta1204
p900
I0
sVTotalDeming
p901
I0
sVMaryFGs
p902
I0
sVpiscinaAlicante
p903
I0
sVElxlA
p904
I1
sVdelfilisotto
p905
I0
sVOSCARLOLARA
p906
I0
sVThomasRetana
p907
I0
sVcattleya_scar
p908
I0
sVMEALSUR
p909
I0
sVLARANADlCE
p910
I0
sVJoyasDeJade
p911
I-1
sVfatima_mera
p912
I0
sVReforestamosMx
p913
I0
sVsrdvd
p914
I0
sVmarijime220
p915
I0
sVMoviePhrasesES
p916
I0
sVpaolaandrea_13
p917
I0
sVmauro_mvc
p918
I0
sVmarvfrias
p919
I0
sVprimovecchio
p920
I0
sVAyto_Marbella
p921
I0
sVCANSantaElena
p922
I0
sVAmadeusAnnais
p923
I0
sVCommieLeones
p924
I0
sVElChismesitoHSB
p925
I-4
sVLadyLiliann
p926
I0
sVcarabin30_30
p927
I0
sVximenamillan60
p928
I0
sVKurdtK
p929
I0
sVmyperfectstwins
p930
I0
sVeubarboletta
p931
I0
sVSonCasasLujosas
p932
I-1
sVlosridiculus
p933
I-1
sVyazz21v
p934
I0
sVpereiraraul59
p935
I0
sVlauasom
p936
I0
sVecobiochile
p937
I0
sVPubenzaEch
p938
I0
sVMegalopolis_MX
p939
I0
sVdeporlasminas
p940
I-1
sVCBazn
p941
I0
sVFernanCordob
p942
I0
sVCANEsmeraldas
p943
I0
sVFlorNiell17
p944
I-1
sVfdocrespo
p945
I0
sVPau_gago
p946
I0
sVmaca_perez
p947
I0
sVMartinA12959743
p948
I0
sVStephieSoloNara
p949
I0
sVUna_Sausage
p950
I-1
sVthegreencorner_
p951
I-1
sVBurbujasPlum
p952
I0
sVfabian_mtn
p953
I0
sVvivianagonella
p954
I0
sVmsailucalvo
p955
I0
sVCanalCapital
p956
I0
sVnelsonruedam
p957
I0
sVNotimex
p958
I1
sVBlanchavez
p959
I0
sVlizethhoran21
p960
I0
sVluquilou
p961
I1
sVel_dinamo
p962
I0
sVallistar_dark
p963
I0
sVEdwarBrachoNews
p964
I0
sVDeboSuponerQue
p965
I-1
sVJeSuisNevers
p966
I0
sVMika_7u7
p967
I0
sVSra58V
p968
I0
sVwecher29
p969
I0
sVJulianSerranoOc
p970
I0
sVnoratv1
p971
I0
sVjagrar
p972
I0
sVBrute_XXX
p973
I-10
sVoterorios4
p974
I0
sVmanuelbaquedano
p975
I1
sVRDSColombia
p976
I1
sVckarlitha_01
p977
I0
sVPencho_15
p978
I0
sVMar_Forcada
p979
I0
sVbrxvesxul
p980
I-1
sVthelight_behind
p981
I0
sVMarieClaire_LA
p982
I-1
sVtemporaltemp
p983
I0
sVAleSzakiel
p984
I0
sVAmeBalsamo
p985
I0
sVherbert320
p986
I0
sVmorbosaborealis
p987
I0
sVJuanaGuerrina
p988
I0
sVnuevojujuy
p989
I0
sVJosluiHP
p990
I0
sValexascarpita
p991
I0
sVDatoEspecial
p992
I-1
sVJL_Suspendido
p993
I0
sVluiges
p994
I0
sVRobertoLopezJal
p995
I0
sVcancunazul
p996
I0
sVMorristaffoya
p997
I-10
sVOrinoquiaCC
p998
I0
sVbrozoxmiswebs
p999
I0
sVlucha5029
p1000
I0
sV__mlndz__
p1001
I0
sVadarivcar
p1002
I0
sVpablo_smsb
p1003
I0
sVmarquezchr
p1004
I1
sVtorcecilia
p1005
I0
sVShaiHourcade
p1006
I0
sVLuisPicat
p1007
I1
sS'YanuaLiseth'
p1008
I0
sVwuantanfry
p1009
I0
sVcrispoma83
p1010
I0
sVferfecto1
p1011
I0
sVMaariiMLV
p1012
I-1
sVcamif5
p1013
I0
sVjoemrz
p1014
I0
sVRedSisco
p1015
I0
sVlemp2014
p1016
I0
sVdelcopco
p1017
I0
sVJuanBezaury
p1018
I0
sVafanasevellii11
p1019
I0
sVfragoso33
p1020
I0
sVPyPeB
p1021
I-1
sVKenjiFujimoriH
p1022
I0
sVcarlosjulioar11
p1023
I0
sVCORMACARENA
p1024
I0
sVmaliaa_mariaa
p1025
I0
sVCorporeEsthetic
p1026
I0
sVTragedyQueen_
p1027
I-1
sVRaquelEcenarro
p1028
I-1
sVRu1zMaria
p1029
I0
sVleoipa
p1030
I0
sVcerebro5
p1031
I0
sVNaomiMBau_
p1032
I0
sVfashionalistas
p1033
I0
sVMinesmq
p1034
I0
sVoviedovictor11
p1035
I0
sVdjcandido
p1036
I0
sVJL30001
p1037
I0
sVpatorresq
p1038
I0
sVAlgaVelez
p1039
I1
sVdalemanec
p1040
I0
sVmihugonzalez
p1041
I1
sVSENIAT_CENTRAL
p1042
I-1
sVTeresaDlCE
p1043
I0
sVTatoMeLlaman
p1044
I-1
sVEduardo21938055
p1045
I0
sVdicolmo
p1046
I1
sVronaldvalpo
p1047
I0
sVHeltoito
p1048
I-1
sVcooptactica
p1049
I0
sVgalerickin
p1050
I0
sVkristellecarola
p1051
I0
sVAmbiente_Carch
p1052
I0
sVDaniSie80
p1053
I0
sVSociedad_Civil_
p1054
I0
sVRevistaWiken
p1055
I-1
sVmapamagob
p1056
I0
sVGilWirchafox
p1057
I0
sVFelicindaCluney
p1058
I0
sVcataclixmo
p1059
I0
sVJuanDeDiosLoz15
p1060
I0
sVLasHorasdejujuy
p1061
I0
sVkmolinacl
p1062
I0
sVSenalColombia
p1063
I1
sVjeane_abg
p1064
I0
sVNuriaSanz5
p1065
I0
sVivandacho
p1066
I0
sVAbifer382
p1067
I0
sVchymbomby
p1068
I0
sVFisiacancun
p1069
I0
sVacvp26
p1070
I0
sVExtraColombia
p1071
I0
sVMauricioArbe
p1072
I0
sVCeleBamonte
p1073
I0
sVgelberpinto
p1074
I0
sVAniBurgos1
p1075
I-1
sVAnthur10000
p1076
I-2
sVHongry_hrm
p1077
I0
sVYoliMuSan
p1078
I1
sVclaraRCNT
p1079
I0
sVRodrigoMutis
p1080
I2
sVAkarantair1412
p1081
I0
sVConaguaPuebla
p1082
I3
sVSagaShooter
p1083
I0
sVcjespinosas
p1084
I0
sVAmigos_Natural
p1085
I0
sVEnloquezco
p1086
I0
sVMARUMEN63
p1087
I0
sVEzeeDominguezz
p1088
I-1
sVIng_HernandezJ
p1089
I0
sVLiscano1979
p1090
I0
sVHOMEROJSIMPS0N
p1091
I0
sVNotiMundo2015
p1092
I1
sVmjforner29
p1093
I0
sVNayelilimonR
p1094
I0
sVCrazySnake2050
p1095
I0
sVmarielb65559621
p1096
I0
sVCulturaGye2016
p1097
I0
sVjcdv80
p1098
I0
sVsandracvc
p1099
I1
sVPichiriloOtto
p1100
I0
sVmwassermannl
p1101
I2
sVanacefer
p1102
I0
sVsoyheimdal
p1103
I1
sVlocarpedom
p1104
I0
sVjoffrecampf
p1105
I0
sVeco_aliados
p1106
I1
sVNayverG
p1107
I0
sVvalen20011
p1108
I-1
sVKaren_bg12
p1109
I0
sVSonrePorLaVida1
p1110
I0
sVServindi
p1111
I1
sVCaricatutronico
p1112
I0
sVidiotamente_
p1113
I0
sVla_informacion
p1114
I0
sVWRADIOMexico
p1115
I0
sVVivamosGM
p1116
I0
sVRossanaV10
p1117
I0
sVARBespanol
p1118
I0
sVmybeat7
p1119
I-1
sVGusmiranda
p1120
I0
sVACCIONA_CL
p1121
I0
sVCarlos01011970
p1122
I0
sVoropa9
p1123
I0
sVgiggettamx
p1124
I0
sVASOPRODEM
p1125
I0
sVevyms2
p1126
I0
sVamoralesan
p1127
I0
sVxalapaalmomento
p1128
I0
sVnorelisyohana
p1129
I0
sVdiegojzuniga
p1130
I0
sVsifoxkrottm3
p1131
I-10
sVMariale_cello
p1132
I0
sVMANOLO_PUGA
p1133
I-10
sVtuitperuano
p1134
I1
sVtampico18
p1135
I0
sVtheescalona
p1136
I-1
sVTONA09
p1137
I0
sVTatianas10
p1138
I0
sVmarimacri2016
p1139
I0
sVPerdomo37
p1140
I0
sVcristianq24
p1141
I-1
sVElizabethc_01
p1142
I0
sVmujeresDF_NA
p1143
I0
sVPaz1967
p1144
I0
sVclauesgo
p1145
I0
sVsofvelce
p1146
I0
sVMafaMP_
p1147
I0
sVmicamarilaf
p1148
I-1
sVgenteconvos
p1149
I0
sVLauJmnz05
p1150
I0
sVcaarolmtz
p1151
I0
sVsibcolombia
p1152
I0
sVAgContracultura
p1153
I0
sVConnieLinares1
p1154
I0
sVceci_alfaro
p1155
I0
sV22_dur
p1156
I0
sVmarcial_abad
p1157
I0
sVFannyVSilvaB
p1158
I0
sVLupitaBGH
p1159
I0
sVCarolasarubbi
p1160
I0
sVSinPretexistas
p1161
I0
sVhuyoa
p1162
I1
sVElPostAntillano
p1163
I0
sVLaVozdeIca
p1164
I0
sVAsotoAdriana
p1165
I3
sVwildermanrobles
p1166
I0
sValbertogento
p1167
I-1
sVangelamrobledo
p1168
I0
sVlumehiher
p1169
I0
sVnicomanzur1763
p1170
I0
sV_lucassanz_
p1171
I0
sVjeanpierremora
p1172
I0
sVJaf_onkel
p1173
I0
sVreyeslyon
p1174
I0
sVcsilvarango
p1175
I1
sVAngieVanezita
p1176
I1
sVanitabarre12
p1177
I0
sVREALGAPA
p1178
I0
sVlulivala
p1179
I0
sVdevimora
p1180
I0
sVneftalivillena
p1181
I0
sVsoysolidarioco
p1182
I1
sVcgtgroundforce
p1183
I0
sVMilaTheFangirl_
p1184
I0
sVgongor1971
p1185
I0
sS'Vero_Mendoza_F'
p1186
I1
sVjuanjogldu
p1187
I0
sVjpmoralesviteri
p1188
I0
sVRandinaylosAstr
p1189
I0
sVDiana_Amores
p1190
I0
sVCLAUDIABAHAMON
p1191
I1
sVgerecano
p1192
I0
sVMARISABOWIE
p1193
I0
sVmecayata
p1194
I0
sVToto_gonzalez_
p1195
I0
sVMiluflan7u7
p1196
I0
sVeva_lopez1
p1197
I0
sVAmor1_G
p1198
I0
sVluismoiRam
p1199
I0
sVcdsaraniti
p1200
I0
sVgastononeto
p1201
I0
sVRadioSonoraSv
p1202
I0
sVMschv1
p1203
I0
sVtherealtezuka
p1204
I0
sVailen2
p1205
I0
sVfaltanmenosdias
p1206
I0
sVDLCHappman
p1207
I0
sVnorteenlinea
p1208
I0
sV10pinscommunity
p1209
I-1
sVecoportalnet
p1210
I0
sVpiercetheluciv
p1211
I0
sVMaurici27307528
p1212
I-1
sVMONIVADAPE
p1213
I0
sVdrivefastlana
p1214
I0
sViaguey6624
p1215
I0
sVRendonNickole
p1216
I0
sVlomaki
p1217
I0
sVcarolyn_doctor
p1218
I0
sVk4rol4y
p1219
I-1
sVDeived_El_Cinco
p1220
I0
sVSandraHavana
p1221
I0
sVmontzerrats
p1222
I0
sVsusyvillafruela
p1223
I0
sVEsmorisdist
p1224
I0
sVdavidcantara
p1225
I-1
sVlatintacba
p1226
I0
sVBeluMelanu
p1227
I0
sVlafm
p1228
I1
sVcristinaburneos
p1229
I1
sVrafa_pont
p1230
I0
sVluisuseche20091
p1231
I0
sVmontespecuario
p1232
I0
sVluciaSantanaa
p1233
I0
sVNotilogia
p1234
I0
sVgabrielamartf
p1235
I0
sVCiudadManizales
p1236
I0
sVMcab1980
p1237
I0
sVALFA_INSUMOS
p1238
I0
sVlidy1408
p1239
I0
sVBlogElRio
p1240
I1
sVNachoacademicoo
p1241
I0
sVthegreatcoso
p1242
I0
sVcapasewa
p1243
I0
sVkathy5kafer
p1244
I0
sVChapultepecCDMX
p1245
I1
sVDiputadosPRSC
p1246
I0
sVPabloarturo81
p1247
I2
sVsca2684
p1248
I0
sVmalprocrastina
p1249
I0
sVPorticoOnline
p1250
I0
sVcloquell86
p1251
I0
sVmapinedamilton
p1252
I0
sVriotireo
p1253
I0
sVFULLCRIS
p1254
I0
sVEsDeIndirecta
p1255
I0
sVberanuy
p1256
I0
sVxeniagabella
p1257
I0
sVdpmontalvan
p1258
I1
sVBeatrizHLeon
p1259
I0
sVSistemaSeis
p1260
I0
sVDemocracyNowEs
p1261
I0
sVleonardopin1
p1262
I1
sVGabrielVallejoL
p1263
I1
sVFibritSA
p1264
I0
sVtysmagazine
p1265
I0
sVZongohanec
p1266
I0
sVbatzarre_
p1267
I0
sVrioagrio
p1268
I0
sVQuevedoLimpio
p1269
I0
sVcalata68
p1270
I0
sVMaryJoseDeBiebs
p1271
I-1
sVIvan58730406
p1272
I0
sVBuenVivir2015
p1273
I0
sVanacanoarribas
p1274
I0
sVDPDCojedes
p1275
I0
sVAlexisSalleOk
p1276
I0
sVGemaRamiro1
p1277
I0
sVConaguaMorelos
p1278
I0
sVCintiaYanethH08
p1279
I0
sVhelenakenobi
p1280
I0
sVECU911Loja
p1281
I0
sVMarcelaAnguloG
p1282
I3
sVGarciaArria
p1283
I0
sVtecminera
p1284
I0
sVLennyGG_NS
p1285
I0
sVAmazilia_lactea
p1286
I0
sVUnaTalJessy
p1287
I0
sV82Luchadora
p1288
I0
sVL0C4XW1TTEVEEN
p1289
I0
sVelenathin
p1290
I1
sValvez_amaya
p1291
I0
sVgrsanchez4
p1292
I0
sVclaucampero
p1293
I0
sVBrionnerStark
p1294
I0
sVsolnaturamadrid
p1295
I-1
sVluleonta
p1296
I0
sVAlejaM3ra
p1297
I0
sVLibrosyAcapulco
p1298
I-1
sVchismografito11
p1299
I1
sVContagioradio1
p1300
I2
sVjuanboschss
p1301
I0
sVlautyFizzy
p1302
I0
sVjohnnyandino1
p1303
I0
sVEinformativo
p1304
I2
sVRafaelaNoticias
p1305
I0
sVbarbara_oshea
p1306
I0
sVvenezuelaaldia
p1307
I0
sVsusitroxina
p1308
I0
sVzeppflyhigh
p1309
I0
sVsanceli
p1310
I1
sVPDC_RegionAysen
p1311
I0
sVwilcheschaux
p1312
I4
sVbrunorodrigo54
p1313
I-1
sVmzskee0
p1314
I0
sVDiscoveryTotal
p1315
I1
sVClauEdithR
p1316
I0
sVdorismartinz
p1317
I0
sVsostenible132
p1318
I0
sVMartaTuada44
p1319
I0
sVmax_arlekin
p1320
I0
sVCANCotopaxi
p1321
I0
sVcarolinaana76
p1322
I0
sVdaniacoa
p1323
I0
sVRonyColadeCuba
p1324
I1
sVVoragine507
p1325
I0
sVariareco
p1326
I0
sVninoskenriquez
p1327
I0
sVmj_alo
p1328
I0
sVAlcaldiaDeSucre
p1329
I1
sVaristideslpz
p1330
I0
sVMary_solis_
p1331
I0
sVMagallon_i
p1332
I0
sVBygGut
p1333
I0
sVoscaredaza
p1334
I0
sVvfucereceda
p1335
I0
sVminicandie523
p1336
I-1
sVelpo_jhon8
p1337
I0
sVnicbritograndes
p1338
I0
sVSenpladesEc
p1339
I0
sVFOX_Espanol
p1340
I0
sVAnayaMario_
p1341
I0
sVinesgarzong
p1342
I0
sVjuanda1ec
p1343
I0
sVYowsa777
p1344
I0
sVFLopezr68
p1345
I0
sVCANImbabura
p1346
I0
sVJallosUribe
p1347
I0
sVAlejandroPajon
p1348
I1
sVubillaeduardo
p1349
I0
sVSIMONFIDEL_RNO
p1350
I-1
sVFotografasEs
p1351
I-1
sVxnvixblx
p1352
I0
sVcesacoca
p1353
I0
sVluiguifern68
p1354
I0
sVtravelersvan
p1355
I0
sVFRubioTorgler
p1356
I6
sVEritb12
p1357
I0
sV25Rubius
p1358
I0
sVLDavelouis
p1359
I0
sVlosmiserables8
p1360
I1
sVJarumymendez
p1361
I1
sVherreragonzalo3
p1362
I0
sVjberona
p1363
I0
sVRobRmzdelaParra
p1364
I0
sVRoxanaorol
p1365
I-1
sVbl4ckkatt
p1366
I0
sViMathisellanes_
p1367
I0
sVRodrigoENegrete
p1368
I5
sS'coicaorg'
p1369
I0
sVCarbostero
p1370
I0
sVAlbertoCannijo
p1371
I0
sVlafudista
p1372
I0
sVAlFacatativa
p1373
I0
sVCarmenBorbarnF
p1374
I0
sVFollowersTwLati
p1375
I-1
sVcriscallejero14
p1376
I0
sVCANOrellana
p1377
I0
sValvaroveliz
p1378
I0
sVprecolombianos
p1379
I0
sVfvadone
p1380
I0
sVJaimeLlanes1
p1381
I0
sVleonarvys1
p1382
I0
sVpatricia_bruna8
p1383
I0
sVelespectador
p1384
I1
sVDaniel_Breogan
p1385
I0
sVborbonluis
p1386
I0
sVknoxaudrey1
p1387
I1
sVbrandonzamudio1
p1388
I0
sVstrangerfk
p1389
I0
sVNoreMarie
p1390
I0
sVDJ_Urizar_7
p1391
I0
sVnicoutx
p1392
I0
sVMarianaAsmundis
p1393
I0
sVbachegonsa
p1394
I0
sVnatolarte
p1395
I0
sVgirodolosom
p1396
I-1
sVNoCorredor
p1397
I1
sVExpresionChih
p1398
I0
sVfdelgado_chovet
p1399
I0
sV53e6d8c6f3094ab
p1400
I0
sVMomentosDeMohr
p1401
I0
sVsujiles
p1402
I0
sVhumedalesbogota
p1403
I0
sVLm1Martinez
p1404
I0
sVopds_gba
p1405
I0
sVELevyPTY
p1406
I0
sVCNE_LosRios
p1407
I0
sVEdwinPalaciosM
p1408
I0
sVrs_antonella
p1409
I0
sVthbarp
p1410
I0
sVgatasaba
p1411
I0
sVRobertioJuniar
p1412
I0
sVveroosornio
p1413
I0
sVamelitazz
p1414
I1
sVLetrasOlvidada
p1415
I0
sVopiumgarden
p1416
I0
sVGolondrina49
p1417
I0
sVNCAntioquia
p1418
I0
sVmarialramis
p1419
I1
sVIliianaG
p1420
I0
sVcrazyamado
p1421
I0
sVCarapalida036
p1422
I0
sVJohnNieve
p1423
I0
sVCABALLEROGUUS
p1424
I0
sVMexpomueblera
p1425
I0
sVkuumyu
p1426
I0
sVmundoamor
p1427
I-1
sVniwder21
p1428
I0
sVRadioCiudad1017
p1429
I0
sVraulb20
p1430
I0
sVsand_nubia
p1431
I0
sVKrauseAlcalde
p1432
I1
sVNajuyer
p1433
I0
sVPanchoRetamales
p1434
I0
sVquiasma_
p1435
I0
sVplanteriacl
p1436
I0
sVhodianachas1994
p1437
I0
sVAdan_Mejia_A
p1438
I0
sVmilystation
p1439
I0
sVSerge1019
p1440
I0
sVterko2013
p1441
I1
sVSalahAl_Din_III
p1442
I0
sVPorAmorRC1
p1443
I0
sVturistukeando
p1444
I-1
sVentrepobles
p1445
I0
sVAgamaAntoni
p1446
I0
sVcesarelcambio
p1447
I0
sVRobertMatos8
p1448
I0
sVGobiernoTachira
p1449
I1
sVnonnoduca
p1450
I0
sVPronaturamexico
p1451
I0
sVluiskankui
p1452
I0
sVFaby_pincha
p1453
I0
sVchompiicbr
p1454
I0
sV26_francisco
p1455
I0
sVDiscCambSocial
p1456
I0
sVdelfibrest
p1457
I0
sVCande_Danelutto
p1458
I0
sVanabume
p1459
I0
sVenegonzalez1
p1460
I0
sVGbifEs
p1461
I0
sVretioDF
p1462
I0
sVhelga_jimenez
p1463
I-1
sVdanielbernalb
p1464
I6
sVQROOENLINEA
p1465
I0
sVConsumeHastaMor
p1466
I0
sVFeli2x2
p1467
I1
sVoreja777
p1468
I1
sVPSsostenible
p1469
I1
sVCPerezCueto
p1470
I0
sVstormcaptain
p1471
I0
sVfurquiad
p1472
I0
sVkarenmvy
p1473
I0
sVrodelaefe
p1474
I0
sVMaurobk90
p1475
I0
sVlutteralflavia
p1476
I0
sVsas_peru
p1477
I0
sVcipenza
p1478
I0
sVurruchaga
p1479
I0
sVRicBenedetti
p1480
I0
sVmireiheras
p1481
I0
sV1000_am
p1482
I0
sVCuchoRojo
p1483
I0
sVSE_Michoacan
p1484
I0
sVMariaBloom301
p1485
I0
sVjuanaantonio6
p1486
I0
sVMoni_Ju92
p1487
I0
sVlusr20
p1488
I0
sV_thalias_
p1489
I0
sVLoco_zomba
p1490
I0
sS'rubenarango2003'
p1491
I1
sVgabby_seis
p1492
I0
sVComunaIndRangel
p1493
I0
sVPedregalCdmx
p1494
I0
sVAlonzojrm
p1495
I1
sVgbarrero
p1496
I0
sVviolenknyazev11
p1497
I0
sVandrea22399
p1498
I0
sVcomunaingenio
p1499
I0
sVChajles
p1500
I1
sVYasunidos
p1501
I2
sVvanna_bs
p1502
I0
sVmalula1000
p1503
I0
sVeroz790
p1504
I-10
sVrobotorscompany
p1505
I1
sVSea2see_Eyewear
p1506
I0
sVPaolaHolguin
p1507
I1
sVpmtnzc19
p1508
I1
sVImJasmin_HDR
p1509
I0
sVPatriciaVedova
p1510
I2
sVSoloFotoCasera
p1511
I0
sVClarita_Web
p1512
I0
sVBrocolisFtBru
p1513
I0
sVGREX_Z
p1514
I-1
sVMimiBear86
p1515
I1
sVGladiador2111
p1516
I0
sVCerroVines
p1517
I0
sVthonygnzlz_
p1518
I0
sVChassDw
p1519
I0
sVpancholocox
p1520
I0
sVmelanie_lugo200
p1521
I0
sVUNITEGA
p1522
I0
sVmarlouzim
p1523
I2
sVtulio1987
p1524
I1
sVsapitaysapito
p1525
I0
sVelegutgon6
p1526
I0
sVJuanEze5
p1527
I0
sVTodoLoRandom
p1528
I0
sVlecarosxchile
p1529
I0
sVCAR_Cundi
p1530
I1
sVboxmediaweb
p1531
I0
sVNAIKY15
p1532
I-1
sVIvetteNaisha
p1533
I-1
sVLettyStyles1D
p1534
I-1
sVirr644
p1535
I0
sVlourdesjaritas
p1536
I0
sVcastillomiq14
p1537
I1
sVSATGRUPOEMP
p1538
I0
sVManuelLopezGo
p1539
I0
sVcidbibar
p1540
I0
sVUtopia_Urbana
p1541
I0
sVVicenteCanoF
p1542
I0
sVisrael_enlacasa
p1543
I0
sVAndres_Barinas
p1544
I1
sVTVesAlDia
p1545
I-1
sVCorporativoAyA
p1546
I0
sVUnivision
p1547
I1
sVchimeloyola
p1548
I0
sVElviaHernndezG1
p1549
I0
sVespectadorcl
p1550
I0
sVEDeguruaga
p1551
I0
sVPVEMCholula
p1552
I0
sVanibalfossatti
p1553
I0
sVsustenLor
p1554
I0
sVc_valenciana
p1555
I0
sVVidasVerdes
p1556
I0
sVluisparra4
p1557
I0
sVGuira24
p1558
I0
sVquitodelarosa
p1559
I0
sVZeVelindoParado
p1560
I0
sVcamilarodv
p1561
I1
sVkath_Delgado
p1562
I0
sVJaviTitii
p1563
I-1
sVitzelhr
p1564
I0
sVSixtistudios
p1565
I0
sVCataCaroGalvis
p1566
I0
sVRamses_Isaac99
p1567
I-1
sVViviliss
p1568
I0
sVandresierra82
p1569
I0
sVChicaDeMercurio
p1570
I-1
sVivancordobac
p1571
I0
sVFerGaloGut
p1572
I0
sVGorrion56
p1573
I0
sVJuancito_camina
p1574
I0
sVjsacristanparis
p1575
I0
sVOnfestArg
p1576
I0
sVinformacion_ve
p1577
I-1
sVMirtaICervantes
p1578
I0
sValaire981
p1579
I0
sVgergomez9
p1580
I0
sVcedib_com
p1581
I0
sVMaldi24_Andrea
p1582
I1
sVElBigData_Mx
p1583
I0
sVCosas_Femeninas
p1584
I0
sVBetho_elgordo
p1585
I0
sVFranceD_QR
p1586
I0
sVThe_Blacky01
p1587
I2
sVmariieliita98
p1588
I0
sVBarmerJack
p1589
I0
sVbpagricolas
p1590
I0
sVQuiroga8Jose
p1591
I0
sVBho19909093
p1592
I0
sVJAVO_TE
p1593
I0
sVsoyeldeivid
p1594
I0
sVXavierMiarnau
p1595
I0
sS'lobferoz'
p1596
I1
sVHugoVillacis88
p1597
I0
sVFP_Seguridad
p1598
I0
sV2016_chino
p1599
I-1
sVVxxtln
p1600
I0
sVmonaso84
p1601
I0
sVmigueldealba
p1602
I0
sVClari2505011
p1603
I0
sVJuliopLobato
p1604
I0
sVELENADUSSAN
p1605
I0
sVmoisesmarinero
p1606
I0
sVglobiplus
p1607
I0
sVCristianoMundia
p1608
I-1
sVerecciones
p1609
I-10
sVIrkaniaG
p1610
I0
sVbreendazoder
p1611
I0
sVDafneConchaF
p1612
I0
sVmedstradingcorp
p1613
I0
sVtonoingeniero
p1614
I0
sVJulyCastro_97
p1615
I0
sVisabelmsangal
p1616
I0
sVmbarreral
p1617
I0
sVRodcalcagno
p1618
I-1
sVjimsemper
p1619
I0
sVEzeqac123
p1620
I0
sVPatriciaMorgon
p1621
I0
sVbettypop92
p1622
I0
sVsomos_fauna
p1623
I-9
sVelcorresponsal
p1624
I0
sVLuferOssa
p1625
I0
sVDeckOro30K
p1626
I0
sVTipiCoEsoPasa
p1627
I-1
sVSomosAmorosas
p1628
I-1
sVOslyCandela
p1629
I0
sVvanesamartincl
p1630
I0
sVPeVal17
p1631
I0
sVDeConsueloCielo
p1632
I0
sVsvilardyq
p1633
I5
sVnory14
p1634
I0
sVLasPuches
p1635
I0
sVEsotericaRed
p1636
I-1
sVEcuXfavor
p1637
I0
sVJaumeSatorra
p1638
I1
sVcarlosliao26
p1639
I0
sVmarimardona
p1640
I1
sVJoseanHernndezR
p1641
I0
sVDaniel_Isles
p1642
I0
sVjpiragauta
p1643
I0
sVCarolaBezamat
p1644
I0
sVintiasprilla
p1645
I1
sVvalenxlavergne
p1646
I0
sVSPatriciaMolina
p1647
I1
sVvaricardoa
p1648
I0
sVMissaltale
p1649
I0
sVmalokaloka_
p1650
I0
sVGAIAELSALVADOR
p1651
I0
sVCopiarPegar
p1652
I-2
sVrenat_am86
p1653
I0
sVdenigonzalezABG
p1654
I0
sVnestormartinezj
p1655
I0
sVjuanmaREYES
p1656
I0
sVAngel69AMC
p1657
I-10
sVKclauHerrera
p1658
I0
sVjanetbaez1215
p1659
I0
sVSantiMagario
p1660
I0
sVcarlosm50403383
p1661
I0
sVMarioSantisimo
p1662
I0
sVImmaSanjayan1
p1663
I0
sVjohnnyzuri
p1664
I0
sVambienteysoc
p1665
I4
sVjonatanbaldivie
p1666
I0
sVminguiz
p1667
I0
sVErikJimenez08
p1668
I0
sVLauraveronica75
p1669
I0
sVGiancoUrias
p1670
I0
sVsalmafta
p1671
I0
sVcarlucho_olarte
p1672
I0
sVAptoEnSanAndres
p1673
I-1
sVBrandenj53
p1674
I0
sVtherfitzgerald
p1675
I0
sVlopezmana
p1676
I0
sVel_observardo
p1677
I0
sVPorAmorChavez1
p1678
I0
sVHabanaMi
p1679
I0
sVCOP13MX
p1680
I0
sVMarthaL22418
p1681
I-1
sVInmaOrtega68
p1682
I0
sVelectroprotesta
p1683
I0
sVDorkiscr
p1684
I0
sVLuchogilc
p1685
I1
sVDanielaArgStaFe
p1686
I0
sVkamihortua18
p1687
I0
sVBrobyz_
p1688
I-1
sVGunPerro
p1689
I-1
sVlaverdadmo
p1690
I-1
sVLBallesterosM
p1691
I0
sVchukuwata
p1692
I-1
sVtonyversatildos
p1693
I-10
sVMeeelCarc
p1694
I0
sVelaltavozdigita
p1695
I0
sVTSustentab
p1696
I0
sVCamiloPrietoVal
p1697
I1
sVQueenCT0ney
p1698
I0
sVoropezaDR17
p1699
I0
sVNO_entregacosta
p1700
I0
sVFECT_oficial
p1701
I0
sVcaropedrique1
p1702
I1
sVKamecita
p1703
I0
sVjhonatan986808
p1704
I0
sVgeracraft798
p1705
I0
sVmordelba
p1706
I0
sVSplaksonae
p1707
I0
sVLudmila_Cabana
p1708
I0
sVliliramos87
p1709
I0
sVagustincalo2000
p1710
I0
sVRoxannaBaezM
p1711
I0
sVfatfucker7
p1712
I-10
sVDalilitaKmelo
p1713
I0
sVwebcampeones
p1714
I-1
sVPortalImparcial
p1715
I0
sVDianaEspinosaBu
p1716
I1
sVJenniYusti_96
p1717
I0
sVracc1972
p1718
I-10
sVCCMSSAC
p1719
I0
sVLucasCasteI_
p1720
I0
sV_melissa19
p1721
I0
sVRadioGenialFM
p1722
I0
sVJovConFernando
p1723
I0
sVPapalotero1958
p1724
I0
sVAgustinSenaWS
p1725
I0
sVClaudiadoblev
p1726
I0
sV24H_Actualidad
p1727
I0
sVSomosFauna
p1728
I-14
sS'BarbiBakan'
p1729
I-2
sVlizeth_reynaga
p1730
I0
sVMaggichu
p1731
I0
sVBrentToderian
p1732
I1
sVTReporta
p1733
I0
sVEFEverde
p1734
I2
sVgymezaa_ado
p1735
I-1
sVRelatosSimples
p1736
I0
sVandreaiotti05
p1737
I0
sVGabrielLozano98
p1738
I-1
sVJCMBienesRaices
p1739
I-1
sVluisffierro
p1740
I0
sVlalolita28
p1741
I0
sVDerechoCreativo
p1742
I0
sVagialek
p1743
I0
sV100x100Confide
p1744
I0
sVwilsonayala1
p1745
I0
sVenzofica1
p1746
I0
sVEDUIVANMEN
p1747
I1
sVjcalal
p1748
I0
sVDurbinMontoya1
p1749
I0
sVSOLABRIA
p1750
I1
sVCitasLOL
p1751
I0
sVjoseiquitos
p1752
I0
sV_TonioPrad
p1753
I0
sVMaritza_2495v
p1754
I0
sVAbilLovesRubius
p1755
I1
sVVioMerande
p1756
I0
sVMelHerreraM
p1757
I0
sVYayita9
p1758
I0
sVecoVPSanJoaquin
p1759
I0
sVSuciosTacones
p1760
I0
sVkilianrodri
p1761
I0
sVanni_romeroro
p1762
I0
sVsjorquera
p1763
I0
sVmillo_fer1
p1764
I0
sVlllchickbee
p1765
I0
sVZnaeW
p1766
I0
sVmaritzaaceved11
p1767
I0
sVsusanasanaps
p1768
I0
sVRevocaAPenalosa
p1769
I0
sVclick_necesario
p1770
I-1
sVluisescobar0216
p1771
I0
sVHitCuba
p1772
I0
sVClaudiaLosan
p1773
I-1
sVmariela_zanni
p1774
I0
sVaguirrecaro
p1775
I-1
sVtachina
p1776
I1
sVJaviierLozanoA
p1777
I0
sVLBSFloppi
p1778
I1
sV_antonio4_
p1779
I-1
sVNicolaasIvaan
p1780
I0
sVKiweNasa
p1781
I1
sVGrmNeim
p1782
I0
sVAvAskeptic
p1783
I0
sVCastelopaulPaul
p1784
I2
sVlorodelospirata
p1785
I-1
sVagorarsc
p1786
I-1
sVqueenmeery_
p1787
I0
sVMoonShadow92
p1788
I0
sVMandadoJorge
p1789
I0
sVgbaezasan
p1790
I0
sVcharlycitizen
p1791
I0
sVRazoJimena
p1792
I0
sVale_gamer481
p1793
I0
sVmiriammoya33
p1794
I0
sVmanekofuentes
p1795
I1
sVMonyka03
p1796
I0
sVVeronica_Qq1
p1797
I0
sVKshmrMyLife
p1798
I0
sVmaeugenia2001
p1799
I0
sVCANBolivar
p1800
I0
sVelenitagalle
p1801
I1
sVeldescamisao20
p1802
I1
sVChevalierDP
p1803
I0
sVbarbaramarillo
p1804
I0
sVcruzambiental
p1805
I0
sVAndresR_
p1806
I1
sVtrecet
p1807
I0
sVUnjorjito_
p1808
I0
sVCANSucumbios
p1809
I0
sVclfonsecat
p1810
I0
sVF_E_1974
p1811
I0
sV14aniitta
p1812
I0
sVinfomerida_ve
p1813
I0
sVPolitica2017
p1814
I0
sVpajarosuare
p1815
I0
sVConservalaVida
p1816
I0
sVRafaelluisMing1
p1817
I0
sVabajoSGSSS
p1818
I0
sV_Fran25_
p1819
I0
sVMAEImbabura
p1820
I0
sVElHorizontemx
p1821
I0
sVsilvinaconti
p1822
I0
sVVeronicaFrejo
p1823
I0
sVmaberazo
p1824
I0
sVHoroscopoDeHoy
p1825
I-1
sVVernice_ruiz
p1826
I0
sVfranKinjerovac
p1827
I-10
sVVeracruzanosinf
p1828
I0
sVvlasio
p1829
I0
sVJAIM3_ANDR3S
p1830
I1
sVRifkeMashe
p1831
I0
sVAmorYBesosX
p1832
I0
sVmaggiamane
p1833
I0
sVchiquibrambilla
p1834
I0
sVSumapazResiste
p1835
I0
sVbren_mosconi
p1836
I0
sVMatidav
p1837
I0
sViSostenibilidad
p1838
I0
sVSofthings
p1839
I0
sVmercedescentena
p1840
I0
sVcarlosraultoro
p1841
I0
sVSandravigo5
p1842
I0
sVgijondigital
p1843
I0
sVSiAmbiental
p1844
I1
sVroa_isa
p1845
I0
sVBlanncaVazquez
p1846
I0
sVxcrybaex
p1847
I0
sVBorjach
p1848
I0
sVdavid_reinhard
p1849
I0
sVLaloAngulo_G7
p1850
I0
sVAguchoRz10
p1851
I0
sVpatxizuazaga
p1852
I0
sVluwalmagazine
p1853
I0
sVTourAustralUNPA
p1854
I0
sVJuanBidegain3
p1855
I0
sVJoel_Mar90
p1856
I0
sVChisteVeloz
p1857
I0
sVParqueoPK7
p1858
I-1
sVdiarioepoca
p1859
I0
sVLowestArt
p1860
I0
sVCoralCambio
p1861
I0
sVpraderaonline
p1862
I0
sV479nea
p1863
I0
sVgffsbarth
p1864
I0
sVdrmarcolomo
p1865
I0
sVEdithdLeonL_
p1866
I1
sVnbc_354
p1867
I0
sVJhosuaPaul
p1868
I0
sVINAHmx
p1869
I0
sVrguzman34
p1870
I0
sVMarchaAmbiente
p1871
I1
sVcnesucumbios
p1872
I0
sVfany_cervantess
p1873
I0
sVnatymartinez94
p1874
I1
sVrevolucionvz
p1875
I0
sVAbraham_MasBio
p1876
I0
sVjoseacontreras
p1877
I1
sVabruorellana
p1878
I0
sVDavid_Pineda89
p1879
I0
sVMdllugoc
p1880
I0
sVferjuhurtado
p1881
I1
sVbihari_p
p1882
I1
sVabigail43816553
p1883
I0
sVGrandesInformes
p1884
I0
sVdnlgonzlez
p1885
I0
sVtomideastorga
p1886
I0
sVLauraCuomo
p1887
I0
sVyalojodi
p1888
I0
sVIvanGamer_HD
p1889
I-1
sVVictorRSG23
p1890
I0
sVfundacionchile
p1891
I1
sVvladimirlenin81
p1892
I0
sVjmachadoRNO
p1893
I-1
sVlarocayuukm
p1894
I0
sVcabreraesteban7
p1895
I0
sVlaura3032
p1896
I0
sVambientequito
p1897
I4
sVSoyBuhola
p1898
I0
sVunonoticias_qr
p1899
I0
sViBraianGarrixOk
p1900
I0
sVdaniellariosa
p1901
I0
sVJFarcia
p1902
I0
sVFtv_MatutinoEx
p1903
I-1
sV_mmsc
p1904
I0
sVFashion_esp
p1905
I-1
sVFNAmbiental
p1906
I7
sVMiNotaCuriosa
p1907
I0
sVHaroldYanesR
p1908
I1
sVkemi_otaku
p1909
I-1
sVpass_rodri
p1910
I-10
sVMel_Salci
p1911
I0
sVDannyBen31
p1912
I0
sVedgard_manuel
p1913
I0
sVBaricharaHMSB
p1914
I0
sVEstebannG24
p1915
I0
sVagus_dlc
p1916
I0
sVDixiedith
p1917
I0
sVguilletellrodri
p1918
I0
sVfaidit
p1919
I0
sVCAN_Chimborazo
p1920
I0
sVPalavecinoGauna
p1921
I1
sVSoyEcoConfuso
p1922
I0
sVJpmhswatPablo
p1923
I0
sVchamacoaquiles
p1924
I-10
sVFondoBolivar
p1925
I0
sVmlara172001
p1926
I0
sVradiovargas
p1927
I-1
sV_paolanicol_
p1928
I0
sVguinazu99
p1929
I0
sValejandrocheche
p1930
I0
sVAndreyCano
p1931
I2
sVlcoronav
p1932
I1
sVJorgeMoch
p1933
I0
sVaramalva
p1934
I-1
sVCamilaEscribano
p1935
I0
sVSolDeCuernavaca
p1936
I0
sVPunkRuph
p1937
I0
sVCirculosNovela
p1938
I0
sVmanolorp
p1939
I0
sVJuanschurlein
p1940
I0
sVmironovamaina
p1941
I0
sVgranadahola
p1942
I-2
sVaesneptuno
p1943
I0
sVCneZamoraCh
p1944
I0
sVmafer_baug
p1945
I0
sVOzielAparicio
p1946
I0
sVPeru_Noticias
p1947
I0
sVDynamicLight77
p1948
I0
sVEl4DeOro
p1949
I0
sVAngmarh
p1950
I0
sVinfo_naturaes
p1951
I1
sVDalipo1
p1952
I0
sVPuroDatosChile
p1953
I-1
sVroxanaylino12
p1954
I0
sVmexico_migrante
p1955
I0
sVlahistoriaec
p1956
I0
sVRaydelIsasi
p1957
I0
sVAlahednewsEs
p1958
I0
sVemilmuravev1985
p1959
I0
sVcanal_chile
p1960
I0
sVdel_antonio_
p1961
I0
sVedkankwa
p1962
I0
sVfiestahombres
p1963
I0
sVEnDondeCorrer
p1964
I0
sVAgusCagigas
p1965
I0
sVJulioTrujillo_
p1966
I0
sVerwinobreque
p1967
I0
sVCanalRCN
p1968
I0
sVrobertosaenz
p1969
I0
sVbiosierra
p1970
I1
sVMeellibarra
p1971
I0
sVmmendezp1999
p1972
I0
sVgtkanan
p1973
I0
sVROSSELOT
p1974
I-1
sVLaComarcaSN
p1975
I0
sVDannymay2Danny
p1976
I0
sVanaid190967
p1977
I0
sVElrincondFungus
p1978
I-1
sVnattycs501
p1979
I1
sVBrennendeAugen
p1980
I0
sVNestly_shek
p1981
I0
sVLa17dOctubre
p1982
I0
sVmaximrudin
p1983
I0
sVjoan_cm
p1984
I0
sVjlazaro
p1985
I0
sVactivoguy
p1986
I-10
sVedithcsaucedo
p1987
I0
sVcaro_ortiz10
p1988
I0
sVLlamesLuis
p1989
I0
sVputridpile1
p1990
I0
sVCartomancia24h
p1991
I0
sVleydy__02
p1992
I0
sVactualidadspda
p1993
I1
sVLucas_el_gato
p1994
I0
sVmedicenhobbit
p1995
I0
sVENLACEJOVENPN
p1996
I0
sVdzapatillas
p1997
I0
sVarrastape22
p1998
I-1
sVbarbaraarz
p1999
I-1
sVsoyvirginiana
p2000
I-1
sVerikalina
p2001
I0
sS'Ruralac'
p2002
I1
sVJaliskoPark
p2003
I0
sVagus_geymonat
p2004
I0
sVpbosque1
p2005
I0
sVMiguel63074729
p2006
I-1
sVkikerl2005
p2007
I0
sVEscalonaLinmich
p2008
I0
sVLeal2Ramon
p2009
I0
sVwcamargotriana
p2010
I1
sVbelenbgmb
p2011
I0
sVantongonz2
p2012
I0
sVCamiloCancelado
p2013
I0
sVparamosaversONG
p2014
I1
sVgemmagelpi
p2015
I0
sVDsdLaPlaza
p2016
I0
sVUAGroVerde
p2017
I0
sVVivirEnIsla
p2018
I0
sVtuitsdecarbon
p2019
I1
sV24bantu
p2020
I0
sVFernand57894543
p2021
I0
sVcristinarunzer
p2022
I0
sVLagox69Rogelio
p2023
I0
sVgeorgiiryabov1
p2024
I0
sVNoticiasZ5
p2025
I0
sVGraxelfuego01
p2026
I0
sVelioarauzadames
p2027
I0
sVEternallyLover2
p2028
I0
sVCrisDallOrso
p2029
I0
sVIvannaBeiza
p2030
I-1
sVCastill06109816
p2031
I0
sV15Gimnasia
p2032
I0
sVEl_Toopi_Cruz
p2033
I0
sVLaRadioAsamblea
p2034
I0
sVMarioFtPaisa
p2035
I0
sVRockabillypaw
p2036
I0
sValorell
p2037
I0
sVPETAMIRIAM5
p2038
I0
sVonlylaup
p2039
I0
sV3loymartinez
p2040
I0
sVFloorBeltramone
p2041
I0
sVinsaciable95
p2042
I-1
sVcarolyne_gis
p2043
I0
sVSilviaDiana1951
p2044
I1
sVfluorescntsara
p2045
I0
sVtitulame
p2046
I0
sV23ALZAT
p2047
I1
sVLauraRoblesLo
p2048
I0
sVsory1975
p2049
I1
sVCubanoPalanT
p2050
I0
sValmarainbow1
p2051
I0
sVmedinamiles1
p2052
I0
sVFdez1Fdez
p2053
I0
sVAldabi
p2054
I0
sVGonzaloDaz10
p2055
I0
sVEduardoBocco
p2056
I0
sVsamlit78
p2057
I0
sVSiervoDeDeva
p2058
I0
sVLeoDiCaprio
p2059
I1
sVLLegue_Yo_
p2060
I0
sVBogotaBasura0
p2061
I1
sVParquesColombia
p2062
I1
sVASAELPOP
p2063
I0
sVCorellaco
p2064
I0
sVmarjevs
p2065
I0
sVJulioBravin
p2066
I0
sVmanuelacasique
p2067
I0
sVcaj_5090hy
p2068
I0
sVCAMILOESTRELLA
p2069
I0
sVAguilarSarabia
p2070
I2
sVWhakamua
p2071
I0
sVmiguelangelpc
p2072
I0
sVJacenriquez69
p2073
I0
sVrizxsbxbe
p2074
I0
sVdianialejandri
p2075
I0
sVdidirivera65
p2076
I0
sVPauMar00
p2077
I0
sVWillyR20
p2078
I0
sVmarvarez30
p2079
I0
sS'gguerreroruiz'
p2080
I1
sVqueremosverde
p2081
I0
sVPrinceAzuI
p2082
I0
sVRTwittear
p2083
I0
sVVLligalo
p2084
I0
sVLaVidaYElCanto
p2085
I1
sVCubaVero
p2086
I0
sVmilkorockmar
p2087
I2
sVaggregatte
p2088
I0
sVds_ron
p2089
I0
sVamigrumashi
p2090
I0
sVexekiel_s231
p2091
I0
sVPepeLaRanaES
p2092
I-1
sVLuiLeonLuque
p2093
I0
sValeczviva
p2094
I0
sVesetrapi
p2095
I0
sVMiguelMirandaBo
p2096
I0
sVrobert_portillo
p2097
I0
sVAri2405
p2098
I0
sVRomChachipiro
p2099
I-1
sVOsirisdleon
p2100
I0
sVPalomaam2012
p2101
I0
sVjjschmittersoto
p2102
I0
sVMuniMixco_
p2103
I0
sVanjeruk1
p2104
I-10
sVmik_hail1235
p2105
I0
sVBuenosAirezz
p2106
I0
sVBenruH
p2107
I0
sVlacontradejaen
p2108
I0
sVCiudadDeFrases
p2109
I0
sVla100fm
p2110
I0
sVnigthwich
p2111
I1
sVJuanCruzCampagn
p2112
I0
sVRetweetHerrera
p2113
I0
sVmaestroviejoes
p2114
I0
sVAlltechSpain
p2115
I0
sVlaondactual
p2116
I1
sVAnto__24
p2117
I0
sVFT_Col
p2118
I2
sVbarcelonhola
p2119
I-1
sVesq_salsa
p2120
I0
sViAlejoIgoa_
p2121
I0
sVMauroChellillo
p2122
I0
sVEscortsMexico
p2123
I-1
sVGYantalema
p2124
I0
sVLUCHO_HER
p2125
I0
sVteatrooriente
p2126
I0
sVANONYMUSYARACUY
p2127
I0
sVLaBombilla_M_X
p2128
I0
sVfcjuarezoficial
p2129
I-1
sVareuconiferous
p2130
I0
sVjlmadrid16
p2131
I0
sVJorgeRetamar3
p2132
I0
sV6ar0
p2133
I0
sVchina05garcia
p2134
I0
sVseokjin763
p2135
I0
sVDianaCCL14
p2136
I0
sVRami4421
p2137
I0
sVMoralesMtnez
p2138
I0
sVJohnnyperezv
p2139
I0
sVDefendamsChiloe
p2140
I0
sVColomSalsaRosa
p2141
I-1
sVCANPastaza
p2142
I0
sVTois_G
p2143
I0
sVrobertacostal
p2144
I1
sVMariskaHerrera5
p2145
I0
sVbrisavergaraok
p2146
I0
sVchristopher_psa
p2147
I0
sVKichi25M
p2148
I0
sVEilyTsuki
p2149
I0
sVFERCHITOL
p2150
I0
sVmxvai
p2151
I0
sVmane_ec
p2152
I0
sV0chicote
p2153
I0
sVValentina33223
p2154
I-1
sVADsinAlfredito
p2155
I0
sVnoe_jacqueline
p2156
I0
sVurbe21
p2157
I0
sVElTioMamo
p2158
I0
sVRolandoBarrera9
p2159
I0
sVBlancTuti
p2160
I0
sS'CONANP_mx'
p2161
I0
sVuestatales
p2162
I0
sVmalvarezvargas
p2163
I0
sVIgnaciococimano
p2164
I0
sVsilvitabuendia
p2165
I1
sVSBASANEZ
p2166
I0
sVDietaFacilYA
p2167
I0
sVEmiaranda15
p2168
I-1
sVLatinoyCubano
p2169
I0
sVbykovdonat
p2170
I-1
sV_eduarditou
p2171
I0
sVFernandoRainr
p2172
I0
sVJoseRamn16
p2173
I0
sVrociiolm
p2174
I0
sVColaboraenred
p2175
I0
sVolca_chile
p2176
I0
sVclaudiacerdavar
p2177
I0
sVFloruanini
p2178
I0
sVPTYSocialCom
p2179
I-1
sVMedCiencia
p2180
I0
sVAthletixFitssne
p2181
I0
sVjrbetanzos
p2182
I0
sVBebe4Nanito
p2183
I0
sVMauphelan
p2184
I0
sVnestor_zv
p2185
I0
sVMeelvelazco
p2186
I0
sVPamGonzalezG
p2187
I0
sVromanotv
p2188
I0
sVfamezcuac
p2189
I0
sVantobusso_
p2190
I-1
sVTwittopsis
p2191
I0
sVcoifsenan02
p2192
I0
sVDelphinusPR
p2193
I0
sVredapoyinfovial
p2194
I0
sVnoraimafigueroa
p2195
I0
sVJUANESCORTBOY
p2196
I-1
sVMaardasilva
p2197
I-1
sVimagenZea
p2198
I0
sS'ConnectasOrg'
p2199
I0
sVCotyOrlando
p2200
I0
sVolddirtypanties
p2201
I0
sVdalmx
p2202
I0
sVHernanMatrecisa
p2203
I1
sVraban_original
p2204
I0
sVAndyvla
p2205
I0
sVjuan007martinez
p2206
I0
sVCruciguijosa
p2207
I0
sVFriBalestri
p2208
I0
sVMatiAltcheh
p2209
I0
sVMMartinezMira
p2210
I0
sVAliciaAbanto
p2211
I0
sVrioenlinea
p2212
I0
sS'karlaakuri'
p2213
I-2
sVPEsturo51
p2214
I0
sVmadamtusein
p2215
I0
sVestherurquiola
p2216
I0
sVnekrowolf_14
p2217
I0
sVYaraviku
p2218
I0
sV16tinisolista
p2219
I0
sVlilarincon1
p2220
I0
sValeman_ara
p2221
I0
sVARetail
p2222
I0
sVAxelSaag
p2223
I0
sVNeyMazzu_RNO
p2224
I0
sVCrudasfrases
p2225
I-1
sVJuanEsp60350370
p2226
I0
sVFmoriatis
p2227
I0
sVrecargado78
p2228
I0
sVEmitecuani
p2229
I0
sVrausalinas
p2230
I0
sVTuAlcaldeRichy
p2231
I1
sVguzlopster
p2232
I0
sVAidaespanol
p2233
I5
sVBegotzudiez
p2234
I0
sVBautisterGirls
p2235
I0
sVTahizBravo2014
p2236
I-1
sVAdmarcocerc
p2237
I0
sVcloudserver7
p2238
I0
sVdan17otaku
p2239
I0
sVQueHayEnLinea
p2240
I0
sVMarcosGilOsorio
p2241
I0
sVjessas1192
p2242
I0
sVMensajePolitico
p2243
I1
sVesntrn99
p2244
I0
sVAnaP9Ortega
p2245
I0
sVMEXICOHABLAHOY
p2246
I0
sVmiloccoguido99
p2247
I0
sVyubeira
p2248
I0
sVCosmetiksBlogs
p2249
I-1
sVrebecacostoya
p2250
I-1
sVmenteclara10
p2251
I0
sVminescandia
p2252
I0
sVJessi85Leyva
p2253
I1
sVFnorniella
p2254
I0
sVdallasurdo
p2255
I-1
sVcombomexicanas
p2256
I0
sVAstrolabioslp
p2257
I0
sVfaraariadna
p2258
I0
sVjfrb1987
p2259
I0
sVFedakChasidy
p2260
I0
sVvaronbx
p2261
I-10
sVNico_otherside
p2262
I0
sVCongresoINAM
p2263
I0
sVcomagaec
p2264
I0
sVTitulardechile
p2265
I1
sVguerrilleroepr
p2266
I0
sVlautarochicago
p2267
I1
sVtodo_cine
p2268
I0
sVhector_geog
p2269
I0
sVEdisonMontero8
p2270
I0
sVisabelingo
p2271
I0
sVAlee_dn
p2272
I0
sVlelandreev1987
p2273
I0
sVfabiandahmer
p2274
I0
sVana_ggl81
p2275
I0
sVWilligonz
p2276
I0
sVMisaelDomingue2
p2277
I0
sVsolanitopul
p2278
I0
sVecuacion2010
p2279
I0
sVFrediHudson
p2280
I-1
sVpavesioluis
p2281
I1
sVDulmonts15
p2282
I0
sVSoyJovita
p2283
I0
sVGermanSUNET
p2284
I0
sVEcogranjero
p2285
I1
sVSandraAWeiss
p2286
I0
sVcarlitosalmera
p2287
I0
sVJEOS50
p2288
I0
sVASOCARS
p2289
I0
sVEzeeSanlorenzo_
p2290
I0
sVNoFrackingMx
p2291
I1
sVKevinoMendez89
p2292
I0
sVOsvaldoRestrepo
p2293
I0
sVMinerosFc
p2294
I-1
sVUreMare981FM
p2295
I0
sVNaschlaA
p2296
I0
sVlucho_salcedo
p2297
I0
sVAlbaniaMendezK
p2298
I0
sVdra_stella
p2299
I0
sVHdezricardo1994
p2300
I0
sVdrielSMR
p2301
I0
sVmmejial
p2302
I2
sVleonsantiago80
p2303
I0
sVMaruvargas19
p2304
I0
sVBrisaCasasco
p2305
I0
sVmabecorreo
p2306
I0
sVprensa_ec
p2307
I1
sVrobchay
p2308
I0
sVTopoGuelo
p2309
I0
sVAndbama
p2310
I0
sVColPuntoMedio
p2311
I0
sVidecoterapias
p2312
I0
sVVersoEnFotos
p2313
I0
sVanahi7393
p2314
I0
sVAlbertoAcostaE
p2315
I1
sVYuchanm13
p2316
I0
sVDivied0
p2317
I0
sVYareliArreola3
p2318
I0
sVLoPoneCalderon
p2319
I0
sVcirojoseruiz
p2320
I0
sVRubenDArvizu
p2321
I0
sVKizuny
p2322
I0
sVcalaveracanario
p2323
I0
sVregorfmen
p2324
I-10
sVromafr79
p2325
I0
sVYaroYeli
p2326
I0
sVRodSuarezCa
p2327
I1
sVguidote1202
p2328
I0
sVAumentaTuFuerza
p2329
I-1
sVnorscotti
p2330
I0
sVfilecastro
p2331
I-1
sVIdelVAA
p2332
I0
sVpsicopolitico
p2333
I0
sV_Arinca
p2334
I0
sVnanysgarcia
p2335
I0
sVamericacapitan8
p2336
I0
sVJulioCesarPradi
p2337
I0
sVfrecor2011
p2338
I-1
sVMaestreMatute
p2339
I1
sVqueestapazando
p2340
I0
sVNoktambuleante
p2341
I0
sVJessJim97874304
p2342
I0
sVMoniszF97
p2343
I0
sVbehrentz
p2344
I2
sVCriStuff0
p2345
I0
sVLautaroJ_PTS
p2346
I0
sVJuanManSantos
p2347
I1
sVTiernosmsjsES
p2348
I0
sVDeyQuiceno
p2349
I0
sVgabycane2
p2350
I0
sVJusLabMx
p2351
I0
sVMr_VivaYolo
p2352
I1
sVDailyplanet10
p2353
I0
sVcaropujol
p2354
I0
sV_kxyrx
p2355
I0
sVMigarfi
p2356
I0
sVPadresPartSubv
p2357
I0
sVUSTEDJUZGUE
p2358
I0
sVAnaYudithCarr
p2359
I0
sVSoulconciencia
p2360
I0
sVPaulinadeTorres
p2361
I0
sVadonisfreshx7
p2362
I0
sVelen_tex_gomez
p2363
I0
sVCAMACHOJUANCARL
p2364
I0
sVdemocraciaetica
p2365
I0
sVvaleriahuertas
p2366
I0
sVamanepaty
p2367
I0
sVFrigo_Express
p2368
I0
sVNoSoyAlo
p2369
I0
sVIvan_Brandan
p2370
I0
sVjadeaswolf
p2371
I0
sVTriniYT
p2372
I-1
sVMiAmbientePma
p2373
I1
sVCubafiel
p2374
I0
sVLeonorMenendez_
p2375
I0
sVPandicornio_09
p2376
I-1
sVoptvnoticias
p2377
I0
sVMcLasso_
p2378
I0
sValbertopelu
p2379
I0
sVPrensaClipping
p2380
I1
sVAsma__net
p2381
I0
sVespemasabet
p2382
I0
sVFelipeG02303033
p2383
I0
sVBiciTtec
p2384
I0
sVJunoValentina
p2385
I0
sVyirmaratorres
p2386
I0
sVerjubilao
p2387
I0
sVGYEmitierra
p2388
I0
sVEmiCalivares
p2389
I-1
sVAcEcologica
p2390
I1
sVBecerra15_Mario
p2391
I0
sVejutv
p2392
I0
sVUnFilologoSexy
p2393
I0
sVviajandoperdido
p2394
I0
sValfonso2perez
p2395
I0
sV5Mentarium
p2396
I0
sVjuan_milciades2
p2397
I0
sVCOMPRAS_MERIDA
p2398
I-1
sVDZapataCordoba
p2399
I0
sVtabnrgy
p2400
I1
sVGritandoIdeas
p2401
I0
sVAyluuCaaceres
p2402
I-1
sVChirulito_0
p2403
I0
sVMRverybadthinks
p2404
I0
sVACAagroinsumos
p2405
I0
sVWinnerSailor
p2406
I0
sVvalen_824
p2407
I-1
sVmarco_manzanof
p2408
I0
sVenrique22134034
p2409
I0
sVTrinoFavorito
p2410
I-1
sVTwittores
p2411
I-2
sVEmerg_V_region
p2412
I0
sVAstrid63813483
p2413
I0
sVEstevezNatybell
p2414
I1
sVnaturaambiental
p2415
I1
sVFDavid_92
p2416
I0
sVjavierRMCF8
p2417
I0
sVNebhai11
p2418
I0
sVAgusmartinezlol
p2419
I0
sVMaradel56021158
p2420
I0
sVDecameronHotels
p2421
I-1
sVmeirellesdiego8
p2422
I0
sVTomasoso1
p2423
I-10
sVscraape
p2424
I0
sVSoynadiePress
p2425
I0
sVcagb_0410
p2426
I0
sVgabriela_gabee2
p2427
I0
sVcaicedoanyela
p2428
I0
sVFrannsalaberry
p2429
I-1
sV_alexvm
p2430
I-1
sVpitahernandezc
p2431
I0
sVfundacionmeamo
p2432
I0
sVga_viye
p2433
I0
sValondravaldes_
p2434
I0
sVchismografito7
p2435
I1
sVchismografito9
p2436
I1
sVVicmarInforma
p2437
I0
sVAddillys26
p2438
I1
sVElSrSarcasmos
p2439
I0
sVMexicoSocial_
p2440
I1
sVjlrqmdsjmnz
p2441
I0
sVmanupulgarvidal
p2442
I4
sVraulclima
p2443
I0
sVcarolholebell
p2444
I0
sVbuenohernan
p2445
I0
sVAlfreee01
p2446
I-1
sVDJCARLOSAGREDO
p2447
I0
sVsemaqroo
p2448
I0
sVjuanpablo_566
p2449
I-1
sVkingsmanalliso1
p2450
I0
sVnofler8
p2451
I-3
sVjcuello19
p2452
I0
sVPensarJunin
p2453
I-1
sVmjg_ndv
p2454
I0
sVjuiciosito
p2455
I0
sVcristianmoleker
p2456
I1
sValgore
p2457
I1
sVxjugson_
p2458
I-1
sVingrith946
p2459
I0
sVpaulagavilans
p2460
I0
sVjackybeltran
p2461
I0
sVsolidariotweet
p2462
I0
sVsamalexis2
p2463
I0
sVTorDay61
p2464
I0
sVnuestravision
p2465
I2
sVsanrrm
p2466
I0
sVCelesteBautis14
p2467
I0
sVVamosACalmar
p2468
I0
sVben_amin_tel
p2469
I0
sVNayla95
p2470
I-1
sVCMNUCC
p2471
I1
sVrub24940825
p2472
I0
sVTheAvengador15
p2473
I0
sVpijalarga21
p2474
I-10
sVpedromellado
p2475
I0
sVReservaThomas
p2476
I1
sVprezleonor17
p2477
I0
sVStxrtMeUp
p2478
I0
sVLasLorenzas
p2479
I2
sVCoderAndim
p2480
I0
sVortizeugenio49
p2481
I0
sVsexo_PorVicio
p2482
I0
sVjaoropeza3
p2483
I0
sVHilbert8619
p2484
I0
sVTeleton
p2485
I-1
sVrdzdelvillar
p2486
I0
sVconsulambienta
p2487
I0
sVxNekawa
p2488
I-1
sVpetruStone
p2489
I0
sVEdwinRo50236681
p2490
I-1
sVhelofrompmore
p2491
I0
sVrega1312
p2492
I-10
sVchamana120
p2493
I0
sVNEGOCIEMOSEU
p2494
I0
sVwingsed1
p2495
I0
sVsocia_lita
p2496
I0
sVamePDM
p2497
I1
sVluis_rdavidluis
p2498
I-10
sVAnaaMaidanaa
p2499
I0
sVFloresMagro
p2500
I0
sVMoseRoc
p2501
I0
sVmaeeloro
p2502
I0
sVyxudoigeh9
p2503
I0
sVCasaANNewYork
p2504
I0
sVcarodiotti
p2505
I1
sVCNSV_Santander
p2506
I0
sVBeatrizRgzRuiz
p2507
I0
sVclaudior27
p2508
I0
sVjuanc_acra
p2509
I0
sVMejoresInformes
p2510
I-1
sVsimonpestano
p2511
I0
sVisauragg
p2512
I-1
sVluloleon11
p2513
I0
sVEdilbertoCalde1
p2514
I0
sVKybela_best
p2515
I-1
sVMOPValparaiso
p2516
I0
sVLjubicaRO
p2517
I0
sVJoseUre06
p2518
I0
sVsilvermanSS
p2519
I0
sVSECTUR_GobOax
p2520
I0
sVMalenaCavs
p2521
I0
sValejandrafabita
p2522
I0
sVUrticante
p2523
I0
sVmarcotapiagomez
p2524
I0
sVDagmaOficial
p2525
I1
sVAriVanderbilt
p2526
I0
sVTato21189
p2527
I1
sVgabypereyra1984
p2528
I-1
sVbb_Alvi
p2529
I-10
sVMartilloS3
p2530
I0
sVCBarrosCastelbl
p2531
I0
sVpasivo_envigado
p2532
I0
sVmariana3182160
p2533
I0
sVganafoll
p2534
I-1
sVJSebasEC
p2535
I0
sVPaulinaAldunce
p2536
I0
sVreyballesterosd
p2537
I0
sVVecino_sg
p2538
I1
sVSummer4Ever2015
p2539
I0
sVLaissezFaire101
p2540
I0
sVDdianiyah
p2541
I0
sVVivirYEStarBien
p2542
I-2
sVlaila352009
p2543
I0
sVGirlsYou234567
p2544
I0
sVdiligenciero
p2545
I0
sVCremaTlate
p2546
I0
sVFrancoSwann
p2547
I0
sVGreenpeaceArg
p2548
I0
sVzuloagam
p2549
I0
sVMeLlamanLolu
p2550
I-1
sVMartinUssei
p2551
I0
sVAntonietaUgarte
p2552
I1
sVLuisAntonioR08
p2553
I0
sVSmir54
p2554
I0
sVCuchillo64
p2555
I-1
sVPedroCastilloD
p2556
I0
sVmasomova
p2557
I0
sVInforme21
p2558
I-1
sVgeovanni_atari
p2559
I0
sVBamPuff
p2560
I-4
sVGaliciaRSC
p2561
I0
sVLoreLizano
p2562
I0
sVtweetandshout79
p2563
I0
sVriardoln73
p2564
I0
sVandy_2708
p2565
I0
sVReynaldVillalba
p2566
I0
sVOsvaldoteleSUR
p2567
I0
sVJUANTENEPE
p2568
I0
sVYajaidy
p2569
I0
sVyebano
p2570
I0
sVcecimiosotis
p2571
I1
sVDanicave
p2572
I0
sVktdra
p2573
I-1
sVRodrigoUprimny
p2574
I1
sVIMTA_mx
p2575
I0
sVandresabarcan
p2576
I0
sVcamachojuanma
p2577
I-1
sVGalletaConCafe
p2578
I0
sVEditGutierrez1
p2579
I0
sVharoldporras1
p2580
I0
sVramirito___f
p2581
I0
sVGuillermocab3
p2582
I0
sVbelkis24036550
p2583
I0
sVAleidAcela1956
p2584
I0
sVMontanesXP
p2585
I0
sVclaester
p2586
I0
sVrb_hlg
p2587
I0
sVFedeHaberle7
p2588
I0
sVinfonaturaes
p2589
I0
sVConstruimosEu
p2590
I2
sVAlbertoIpa22
p2591
I0
sVRoseCrossbow
p2592
I0
sVCatatonice
p2593
I0
sVMica_Campbell
p2594
I-1
sVmafcgml
p2595
I0
sVlordonez60
p2596
I0
sVDulceBelenSevi1
p2597
I0
sVGerardoAngulo6
p2598
I0
sVcanaldecoracion
p2599
I-1
sVFungi_Tech
p2600
I0
sVjjonline76
p2601
I0
sVNeti_Cst
p2602
I0
sVpoliforma
p2603
I0
sVMenorcaDEM
p2604
I0
sVENTORNOi
p2605
I1
sVpavilar01
p2606
I0
sVSilSarmiento22
p2607
I0
sVMatteo_salazar
p2608
I0
sVTuPlanetaGM
p2609
I-1
sVdiegoemilio21
p2610
I0
sVEmoticonfaces
p2611
I0
sVirenerd
p2612
I0
sVequipojuridico
p2613
I0
sVFotografiamela
p2614
I-1
sVchichaboliviana
p2615
I0
sVsdenkaramirezpa
p2616
I-1
sVElJeringasLokoo
p2617
I0
sVzeuz1983
p2618
I0
sVyasmiin_irasema
p2619
I0
sVApoyoCinemex
p2620
I-3
sVrosamer51852750
p2621
I-1
sVrobaplantas
p2622
I0
sVAjorgeGutierrez
p2623
I0
sS'Ivanov_Pineda'
p2624
I1
sVOscarEd_FG
p2625
I0
sVBuscoLetras_
p2626
I0
sValjoseparedes
p2627
I0
sVYessicaAlcaraz_
p2628
I0
sVseniat_socopo
p2629
I0
sVpropesca_inca
p2630
I1
sVraymondrene79
p2631
I2
sVmartinparlato
p2632
I0
sVTavoAlama
p2633
I0
sVPostillito
p2634
I0
sVantonellaygutie
p2635
I0
sVCARLOSJLLANOS
p2636
I0
sVVladiPlacencia
p2637
I1
sVCabildoTenerife
p2638
I0
sVDatoFit
p2639
I-1
sVlarrondomanuel
p2640
I0
sVChamartinAvila
p2641
I1
sVEnfoqueNoticias
p2642
I1
sVRenatozg
p2643
I0
sVde_plazza
p2644
I0
sVni_un_corrupto_
p2645
I0
sVBelkysJvasquez
p2646
I0
sValexsama
p2647
I0
sVMarcelitaPiche
p2648
I0
sVYaleE360
p2649
I1
sVMaCris1540
p2650
I0
sVfidelsaavedrab
p2651
I1
sVtomgodoy
p2652
I0
sVrdejesusgg
p2653
I0
sVjose_chemane111
p2654
I-1
sVana68pereira
p2655
I0
sVNegrin261Gloria
p2656
I0
sVRedCerros
p2657
I1
sVferbernal283
p2658
I0
sVcasasmodernas_
p2659
I-1
sVEcuadorTwiter
p2660
I0
sVWhaply
p2661
I0
sVLeanDriiTo_Swaq
p2662
I0
sVcornare
p2663
I0
sVcayeruby
p2664
I-1
sVSITOBUR_Oviedo
p2665
I0
sVinmujeres
p2666
I0
sVDolorNecesario
p2667
I0
sVRafaelaSimone7
p2668
I0
sVEstebanMirol
p2669
I1
sVcamilaolguin02
p2670
I0
sVmartharoldos
p2671
I3
sVVEC5
p2672
I0
sVOntaPaputa
p2673
I0
sVDominikHRTW
p2674
I0
sVEHofkamp
p2675
I0
sVvertvnoticias
p2676
I1
sVCBaumann54
p2677
I0
sVmonysalas13
p2678
I-1
sVCANCarchi
p2679
I0
sV350BCN
p2680
I0
sVLeanDelGaudio
p2681
I0
sVVctorElvir
p2682
I0
sVMrrombys
p2683
I0
sVFRenovables
p2684
I0
sVfuego1019fm
p2685
I0
sVvioleta11377531
p2686
I0
sVFeli_MartinezOk
p2687
I0
sVr3y66c
p2688
I0
sVriverbryan14
p2689
I-1
sVblackandroll
p2690
I0
sVCynthiaNapolis
p2691
I0
sVIdraEy_LW
p2692
I0
sVRicardocruzb1
p2693
I0
sVwrtproduc
p2694
I0
sVMVANS_
p2695
I0
sVraishid
p2696
I0
sVjaimepelaezv
p2697
I0
sVRe_evolucionhum
p2698
I0
sVrobinhyelotro
p2699
I0
sV_aucas
p2700
I0
sVVITA_revista
p2701
I0
sVmorenayblanco2
p2702
I-1
sVkafkanalitica
p2703
I0
sVcanalucr
p2704
I0
sVander_the_table
p2705
I0
sVSam_mopa
p2706
I0
sVLaCapitalMx_
p2707
I0
sVComSocialXalapa
p2708
I0
sVleahxcohen
p2709
I0
sVQsferaoficial
p2710
I1
sVpateverab
p2711
I0
sVvirgbeatriz
p2712
I0
sVArisLarocca
p2713
I0
sVVctorJoseTeran2
p2714
I-10
sVturismovalverde
p2715
I0
sVlightupthedarkk
p2716
I0
sVArqAnahiGR
p2717
I0
sVElTarkan
p2718
I0
sVSalud365
p2719
I0
sVonlysogax
p2720
I-1
sVbfernandezwwf
p2721
I0
sVEvilmaker55
p2722
I1
sVelpelon2016
p2723
I0
sVjairoluis829
p2724
I0
sVElTiempoVerde
p2725
I1
sVjassiel2397
p2726
I1
sVLauraCa34752306
p2727
I0
sVCarlosTigrero33
p2728
I0
sVsonnyrosario
p2729
I0
sVValenSosaa20
p2730
I0
sVConagua_Hgo
p2731
I1
sVzaradrj
p2732
I0
sVammb_2000
p2733
I0
sVFalbinF
p2734
I0
sVCN_sanfdo
p2735
I0
sVKasaka_Systems
p2736
I0
sVValeriaJ23
p2737
I0
sVPatAusra
p2738
I-1
sVchebondar
p2739
I0
sVRoodrigoBarrera
p2740
I0
sVnicokaponix
p2741
I0
sVDruida1
p2742
I0
sVJorgeVeedor
p2743
I0
sVPJJimenez72
p2744
I0
sVlaurivme
p2745
I0
sVmarialoreverap
p2746
I0
sVAguss0_bugge
p2747
I0
sVmandadeamanda
p2748
I0
sVyazmiramc
p2749
I0
sVPinoPatriota
p2750
I0
sVARMAKdeODELOT
p2751
I0
sVteam_puding
p2752
I0
sVCANGalapagos
p2753
I0
sVSofiAvaca02
p2754
I-1
sVFrankcubarp
p2755
I0
sVfelipezuluaga3
p2756
I0
sVdorothyelvira
p2757
I0
sVFundacion_ODyS
p2758
I1
sVmorbogaycdmx
p2759
I-10
sS'OsvaldoAlcantS'
p2760
I-2
sVRobertoSorcia
p2761
I0
sVjuancandradecr
p2762
I0
sVblogsbelleza
p2763
I-1
sVleopollach
p2764
I1
sVxHellWolf
p2765
I0
sVjimenezpda86
p2766
I0
sVIRMO_DE_JESUX
p2767
I0
sVValeMarsans
p2768
I0
sVCami_reyes96
p2769
I0
sVusembassyMVD
p2770
I0
sVA_falato_R
p2771
I0
sVJpKjash
p2772
I0
sVgracebatalla59
p2773
I0
sVgrupodia2000
p2774
I0
sV1111111aaa1
p2775
I0
sVsemilla_tierra
p2776
I1
sVCARICIO_PEREZ
p2777
I0
sVANALILIAFIGUER3
p2778
I0
sVdupis39
p2779
I0
sVEddiemx2009
p2780
I0
sVdarlingihateu
p2781
I0
sVdiktaturmexico
p2782
I0
sVMongabayLatam
p2783
I0
sVjcmpic727
p2784
I0
sVcureluque
p2785
I0
sVMeryTamayo2
p2786
I0
sV_danimishelle
p2787
I-1
sVTomalalempira
p2788
I0
sVDiarioPrimicia
p2789
I-1
sVMiguelGlezC
p2790
I0
sVJorgeAEE
p2791
I0
sVlestebanvelez
p2792
I0
sVPublicautoChile
p2793
I-1
sVosvsuarez_
p2794
I-1
sVNativaCris
p2795
I0
sVInfoApuntes
p2796
I-2
sVharbell_a
p2797
I0
sVAlexIamundo
p2798
I0
sVrichardo130
p2799
I0
sVPublimetroMX
p2800
I0
sVhabla_martillo
p2801
I1
sVAlondravaley
p2802
I0
sVFEDEIGLE
p2803
I0
sVmary_suther10
p2804
I0
sVCambiemoselpalm
p2805
I0
sVMercenariosCPF
p2806
I0
sVNaiaagr_
p2807
I0
sVrodrimartut
p2808
I1
sVsofiare92874573
p2809
I0
sVEze_Leiro
p2810
I-1
sVluismidetotal
p2811
I0
sVastral_facts
p2812
I-1
sVGORELIMA
p2813
I0
sVGraciela0951
p2814
I0
sVmauolmedo
p2815
I0
sVDMoremo
p2816
I1
sVGreenMasterPro
p2817
I0
sVICEI9
p2818
I0
sVCManchenoh
p2819
I-1
sVEfectoAmbiente
p2820
I0
sVecologismo10
p2821
I0
sVAgustin_Nantes1
p2822
I0
sVANDREA_YAJOA
p2823
I0
sVAlexitoh_X3
p2824
I0
sVValeria51608949
p2825
I0
sVgiggoloaunt
p2826
I0
sVKarenArjonista
p2827
I-1
sV_Hada11_
p2828
I0
sVAduanasublara
p2829
I-1
sVluiscarrilloRLA
p2830
I0
sVtheGEF
p2831
I1
sVZombieRenegade
p2832
I0
sVGamboaDani1
p2833
I0
sVfcovam_rno
p2834
I0
sVcarrera_tita
p2835
I0
sValecornejob
p2836
I0
sVBNBTAMAZONAS
p2837
I0
sVHAMANNadn
p2838
I5
sVBautister66
p2839
I0
sVcynthiacostah
p2840
I0
sVUlpiano2010
p2841
I1
sVsiderangxrl
p2842
I0
sVandrebornejo
p2843
I0
sVFilistineNow
p2844
I0
sVProyectosOfic
p2845
I0
sVM_A_Suarez
p2846
I0
sVleslygissel65
p2847
I0
sS'PatriOpina'
p2848
I1
sVelrancahuaso
p2849
I1
sVFP_Apure
p2850
I0
sVJavier_AZR
p2851
I0
sVSebaOlavarria96
p2852
I0
sVlidia_urso
p2853
I0
sVRnfrstAll_Latin
p2854
I7
sVclaudio1vazquez
p2855
I0
sVtodoalnatural
p2856
I0
sVleirisam
p2857
I0
sVTerraFrikiSoc
p2858
I0
sVdianalunareja
p2859
I0
sVgcarrion013
p2860
I0
sVclarvsa_
p2861
I0
sVyasld1
p2862
I0
sVpaislibreEC
p2863
I1
sVlunita_asl
p2864
I0
sVCanoriec01Cesar
p2865
I1
sVMineriaenlinea
p2866
I0
sVdenisovteimura2
p2867
I0
sVBank_Practices
p2868
I0
sVSrLluisTomas
p2869
I0
sVlauramartiinn
p2870
I0
sValessandra21374
p2871
I0
sVinformador_DEP
p2872
I-1
sVleonysradio
p2873
I0
sVEcgius1
p2874
I0
sVpinguinoartico
p2875
I1
sVBarretoizmir
p2876
I0
sVConsulMexMKE
p2877
I0
sVFtEstudio
p2878
I0
sVREDAZCAPOTZALCO
p2879
I0
sVSopeCaviar
p2880
I0
sVOrhi_Vqz
p2881
I0
sVRodrigoTorresL
p2882
I0
sVLaPa_chy
p2883
I0
sVcarolina1408rno
p2884
I1
sVmanfredolo13
p2885
I0
sVMaayy_rodriguez
p2886
I0
sVmagadejim
p2887
I0
sV57juncal
p2888
I0
sVxxJustMaggySMxx
p2889
I0
sVmirobaq
p2890
I0
sVElsyNettel
p2891
I0
sV_neyzams
p2892
I0
sVprof_yurbe
p2893
I0
sVmanuel_rodb
p2894
I12
sVLuisGMurillo
p2895
I5
sVDiego_DonosoV
p2896
I1
sVInfo_Lideres
p2897
I-1
sVvalenciatesoro
p2898
I1
sVKatiray_27
p2899
I0
sVisaiasbrito36
p2900
I0
sVdavidteleki1
p2901
I0
sVsiprecam
p2902
I0
sVMaariiFarias
p2903
I2
sVvllanteng
p2904
I0
sVquicojulio
p2905
I0
sVJuanCazorla
p2906
I0
sVFchJuan
p2907
I-1
sVJazz_Duarte
p2908
I0
sVNuestroAMAZONAS
p2909
I3
sVlentepolitico
p2910
I0
sVgabrielsea_quez
p2911
I0
sVluddico1844
p2912
I0
sVradiointag1
p2913
I0
sVHelen40639983
p2914
I0
sVmagadearg
p2915
I0
sVeesarte
p2916
I0
sVFelipe_bot
p2917
I0
sVxxxnouke_
p2918
I-1
sVRJGM2000
p2919
I0
sVcuetomj
p2920
I0
sVlaninred
p2921
I0
sVfconsydig
p2922
I1
sVACalvoFer
p2923
I0
sVequosevilla
p2924
I0
sVbruno6719
p2925
I0
sV49MO
p2926
I0
sVLaGranEpoca
p2927
I0
sVZA_Politica
p2928
I0
sVFernandoVeLugo
p2929
I0
sVsaldul
p2930
I0
sVlavidaeshumor
p2931
I0
sViamawarrior80
p2932
I0
sVMorilloCorina
p2933
I-1
sVJaviFarsante
p2934
I0
sVPM_abogados
p2935
I0
sVFP_Yaracuy
p2936
I0
sVmollynico
p2937
I0
sVMartaAntunezBCN
p2938
I0
sVecoExtremos
p2939
I0
sVchiclenelzapato
p2940
I0
sVErii_lpz
p2941
I-1
sVmiguelp07ok
p2942
I0
sVrichardgamboa
p2943
I1
sVJeffDSachs
p2944
I1
sVSAYESPINOZA
p2945
I0
sVpbpchavez
p2946
I0
sVAmbienteBogota
p2947
I0
sVlibreriavcuba
p2948
I0
sVyohanamenendz
p2949
I0
sVblamazu777
p2950
I-1
sVMuseoBernasconi
p2951
I0
sVvoypormexico
p2952
I0
sVUnBuenTema
p2953
I-1
sVvalencia_jafeth
p2954
I0
sVParaguayHoy24h
p2955
I0
sVfedeggj
p2956
I0
sVarita_yandun
p2957
I0
sVDianaAD20
p2958
I0
sVapuntedeportes
p2959
I-3
sVEquoAsturias
p2960
I1
sVfriega_again
p2961
I0
sVCostaRizo
p2962
I0
sVmaraluz2015
p2963
I0
sVanainglan
p2964
I-1
sVguzmanhennessey
p2965
I5
sVNoticiasdelfin
p2966
I-1
sVSarandipity_85
p2967
I0
sVempleadapublica
p2968
I0
sVhotels_encanto
p2969
I0
sVMejoresReportes
p2970
I-1
sVMaxiCepero
p2971
I0
sVSaraaaSanchez1
p2972
I0
sVLuisinaaCc
p2973
I0
sVclaudialili76
p2974
I0
sV_m3ss_
p2975
I0
sValvarofroman
p2976
I0
sVberenepa
p2977
I0
sVj15mosquera
p2978
I0
sVlaunovilloec
p2979
I0
sVSectur_Chiapas
p2980
I0
sVbacci1229
p2981
I0
sVAnRuthrg
p2982
I0
sVfractaltrend
p2983
I0
sVSaludybellezaj
p2984
I0
sVYaniregGarcia
p2985
I0
sVElbuscador1995
p2986
I0
sVbettyflopy
p2987
I0
sVNatPressCO
p2988
I1
sVgabito0607
p2989
I0
sVtucuerpoaldia31
p2990
I-1
sVeduviatweet
p2991
I0
sVJessuquillas
p2992
I0
sVanfelolo1
p2993
I0
sVDSAmbientallara
p2994
I0
sVvzavalaz16
p2995
I0
sVrichardjro
p2996
I0
sVvgsc09
p2997
I0
sVCICPCHOT25
p2998
I-10
sVRubiaDeluxe
p2999
I-10
sVlaconukera
p3000
I0
sVNelly_JS_EC
p3001
I0
sVCLNoticiasChile
p3002
I1
sVEddiePalacios73
p3003
I0
sVarmandolizca
p3004
I1
sVJazzVerDe10
p3005
I0
sVEloisavizzuett
p3006
I0
sVpablosivori
p3007
I0
sVCaficulturasost
p3008
I0
sVravila67
p3009
I1
sVElsys2607
p3010
I0
sVRichard___maps
p3011
I0
sVDrummsOn
p3012
I-1
sVmatrixterrible
p3013
I0
sVAriadnaAlcala
p3014
I0
sVc1rio
p3015
I0
sVFelipeMarquezRo
p3016
I0
sVNeuthu_EduardoC
p3017
I0
sVPeriodistasIX
p3018
I0
sVthe_real_angel
p3019
I0
sVgermanlagosh
p3020
I0
sVCAN_Manabi
p3021
I0
sVHCQHO
p3022
I0
sV_Fucking_People
p3023
I-1
sVrobertmontalva
p3024
I1
sVAgrodelKa
p3025
I0
sVmbustaaguirre
p3026
I0
sVManelFerri
p3027
I0
sVTinoTrader1
p3028
I0
sVFelipeAcevedoM
p3029
I1
sVclaveEmergencia
p3030
I0
sVDiegoscarnatto
p3031
I1
sVfabriandrade90
p3032
I0
sVMenfriparis37
p3033
I0
sVJustonoquiero
p3034
I-1
sVanasolroda
p3035
I0
sVeuskadinoticia
p3036
I0
sVNexofin
p3037
I0
sVPauGarello
p3038
I0
sVariasimitador
p3039
I0
sValedumiranda
p3040
I0
sVAliciaBece
p3041
I0
sVcsamuel219
p3042
I-1
sVpealems05
p3043
I-1
sVLuisRaymundoPra
p3044
I0
sVcarlosiglio1977
p3045
I0
sVJoseLeo883
p3046
I0
sVverobeas73
p3047
I0
sVAvisponcho
p3048
I0
sVpablopenaa
p3049
I0
sVManyRemedies
p3050
I0
sVPapihuesos
p3051
I0
sVinfonatura2
p3052
I0
sVamosvete
p3053
I0
sVfeeriver_
p3054
I0
sVcsar_luis
p3055
I0
sVMONOCASTAO
p3056
I2
sVEcolombia2014
p3057
I2
sVLula_bj
p3058
I-1
sVgarik_211
p3059
I0
sVAmandaMarzz
p3060
I0
sVJuanseTotora
p3061
I0
sVyoafran3
p3062
I0
sVAny3882
p3063
I0
sVjoliverov
p3064
I1
sVDelegacionStgo
p3065
I0
sVMigliaroMatilde
p3066
I0
sVxavisco
p3067
I0
sVNavegandita
p3068
I1
sVvilla_ochoa
p3069
I0
sVlavozdelasexta
p3070
I0
sVfutboleroarg99
p3071
I-10
sVenergiachilena
p3072
I0
sVriojalibreok
p3073
I0
sVfjdiaztoro
p3074
I0
sVfotografotunero
p3075
I0
sVadgreenmx
p3076
I0
sVMarcoaxCarballo
p3077
I1
sVamartinezbo
p3078
I0
sVAllioFacundo
p3079
I0
sVImvihSucre
p3080
I0
sVGarciaezequieel
p3081
I0
sVfjmanriquer
p3082
I0
sVklipetzin
p3083
I0
sVElBagreSerrano
p3084
I0
sVFersGuerrero
p3085
I-1
sVFunSolon
p3086
I0
sVxelavv73
p3087
I-1
sVSusybaserva
p3088
I-1
sVIsaacSu95289131
p3089
I0
sVtrabajosquito
p3090
I-1
sVcityguia
p3091
I0
sVrikj146
p3092
I0
sVbrigida_quijada
p3093
I0
sVelbotuto
p3094
I0
sVluisedrogo
p3095
I0
sVNonicastro
p3096
I0
sVTaniaGabrielaaa
p3097
I0
sVsilvialobarte
p3098
I0
sVPrensaQuito
p3099
I0
sVbolivarfiguero1
p3100
I1
sVLaCiudadVerde
p3101
I3
sVMariaLandinez
p3102
I0
sVsokrates75
p3103
I0
sVembacubajapon
p3104
I0
sVSARZICOMEX
p3105
I0
sVAllexQc
p3106
I0
sV10abril1968
p3107
I0
sVRobertoVera54
p3108
I0
sVmilennikonov1
p3109
I1
sVjlcastro78
p3110
I0
sVcineespanol
p3111
I-1
sVNewsofCuba
p3112
I0
sVCGBSenado
p3113
I0
sVmacroarango
p3114
I0
sVagrosoft
p3115
I0
sVsexoseguro
p3116
I0
sVGran_Roque
p3117
I-1
sVlgrobalino
p3118
I0
sVintimiamor
p3119
I0
sVEEB_Artistas
p3120
I-1
sVdiario_vecinal
p3121
I0
sVCLozanoAcosta
p3122
I4
sVCentrodeInforme
p3123
I1
sVaguapotableya
p3124
I0
sVPeru_Today
p3125
I1
sV2008Upab
p3126
I0
sVlucxbrera
p3127
I0
sVTmmMillennials
p3128
I0
sVmenuuc7
p3129
I1
sVsanduchefpanama
p3130
I0
sVUJSARIO_
p3131
I0
sVAngelesTeVi
p3132
I0
sVOximitySpanish
p3133
I0
sVLoulaBennington
p3134
I0
sVReyna211296
p3135
I0
sVmarcarques
p3136
I-1
sVkarliup_castill
p3137
I0
sVDlloTec_CFMA
p3138
I0
sVLeninParedes12
p3139
I0
sVInocenteSV
p3140
I0
sVGIAndradeP
p3141
I2
sVossandonl
p3142
I-1
sVcadavidara
p3143
I0
sVRubiDamaris896
p3144
I0
sVLelainaPeirce
p3145
I0
sVCANMoronaS
p3146
I0
sVtolulahandmade
p3147
I-1
sVfersherpa51
p3148
I0
sVSpungek
p3149
I0
sVMiLugarFavorit2
p3150
I0
sVNITZIABANFIELD
p3151
I0
sVxchorny
p3152
I-1
sVc40cities
p3153
I0
sVCursxdPriest
p3154
I0
sVMarthaRam49
p3155
I0
sVMironcali
p3156
I0
sVjopilili
p3157
I0
sVRP_Pasion
p3158
I0
sVraulmuzquiz
p3159
I0
sVluzalice
p3160
I0
sVSoniaGfk
p3161
I0
sVjulia_campuzano
p3162
I2
sVEndersamYo
p3163
I0
sVGerardoGazcon
p3164
I0
sVContepomiGuido
p3165
I0
sVedgarjimeneeez
p3166
I0
sVcontralinea
p3167
I1
sVSxprm4n16
p3168
I0
sVsebastian9206
p3169
I0
sVchrispunkquito
p3170
I1
sVSilvi25_b
p3171
I0
sVMansilver84
p3172
I-1
sVSIMC_Consultor
p3173
I0
sVagoospalarik
p3174
I0
sVNoticiasPuntual
p3175
I-1
sVLetraProfunda
p3176
I0
sVViceambiente
p3177
I1
sVredbosques
p3178
I0
sVLopezPamelop
p3179
I0
sVTioFefo
p3180
I0
sVLoboStepario
p3181
I0
sVPansylist
p3182
I0
sVCeciRanua
p3183
I0
sVjbarahonaing
p3184
I1
sVfrajico
p3185
I0
sVSosSemana
p3186
I2
sVJcalderonJean
p3187
I0
sVflaicaster
p3188
I0
sVjosealbertoa5
p3189
I1
sVJmgDany
p3190
I0
sVarnoldbejan
p3191
I0
sVMariLlaveel
p3192
I0
sVmarymik54
p3193
I0
sVdolcegabbana___
p3194
I0
sVDifusorDeTweets
p3195
I-2
sVNQueInspiran
p3196
I1
sVFRASESALAMODA
p3197
I-4
sV__emilydiaz_
p3198
I0
sVPolificcion
p3199
I1
sVCTAAmbientalPBA
p3200
I0
sVclemenga
p3201
I0
sValbo75
p3202
I0
sVbag_arr
p3203
I0
sVartesdavinci
p3204
I0
sVSoyDavidPantoja
p3205
I0
sVdespachoAPM
p3206
I0
sVhealthcoachlab
p3207
I0
sVjuanrobertoben
p3208
I0
sVW_I_int
p3209
I0
sVnotix_cl
p3210
I0
sVenrinando
p3211
I0
sV_Lau_u
p3212
I0
sVMarinaPC
p3213
I0
sVMB_Paloma
p3214
I0
sVgastudillorno
p3215
I0
sVfercasa14
p3216
I1
sVCISAV
p3217
I0
sVreinosporti3
p3218
I0
sVJoseAnHz
p3219
I-1
sVLa_Florecita_HS
p3220
I0
sVMs1Marian
p3221
I-10
sVFeelTheTruth_
p3222
I-1
sVdiegoyanez
p3223
I0
sVParamioConde
p3224
I1
sVRbrito2011
p3225
I1
sVKate_18s
p3226
I2
sVAdy_BautistaGil
p3227
I0
sVAhhreLoCo
p3228
I0
sVPasionxDeport
p3229
I0
sVAMBIENTALABOG
p3230
I0
sVCarlosgs5555
p3231
I0
sValex_tcr
p3232
I0
sVUCLVCU
p3233
I0
sVAnto_fl
p3234
I-1
sVJspirulina
p3235
I0
sVFanniaCadena
p3236
I0
sVConstruyenPais
p3237
I1
sVClaudiaLopez
p3238
I3
sVvibes_lions
p3239
I0
sVscembrano
p3240
I0
sVSupra_Ccs
p3241
I0
sVmiguelpinzon11
p3242
I0
sVCohetico108456
p3243
I0
sVConstanzadeMend
p3244
I0
sVgabrielalozaleo
p3245
I1
sVgonnzalezzzz
p3246
I0
sVolgachomi21
p3247
I0
sVchillanactivo
p3248
I0
sVCAN_Los_Rios
p3249
I0
sVSoto184
p3250
I1
sVariel1377
p3251
I0
sVAnaLuzValadez
p3252
I0
sVlariarama
p3253
I1
sVwelcometo307
p3254
I0
sVstemoreno00
p3255
I0
sVerickomar11
p3256
I0
sVLucilaFrola
p3257
I-1
sVanaludesan
p3258
I-1
sVRadarNews1075
p3259
I1
sViBuenviajecom
p3260
I-1
sVJAZARA20
p3261
I0
sVxexecutionerss
p3262
I-1
sValopezdring
p3263
I2
sVOrtizBohorq
p3264
I0
sVTanyiLino
p3265
I0
sVamnistiachile
p3266
I0
sVnandourbina
p3267
I0
sVMarguu2
p3268
I0
sVsusanamuhamad
p3269
I5
sVcomerperderpeso
p3270
I-1
sVdencvb
p3271
I-1
sVurbantika
p3272
I0
sVMaferRdez_26
p3273
I0
sVhectormtzb
p3274
I0
sVcfelipemon
p3275
I0
sVARMERSI75
p3276
I2
sVjohnyco15
p3277
I0
sVkarlayajairamtz
p3278
I0
sVdenmedinaa
p3279
I0
sVThornWolf14
p3280
I0
sVrodolfoQuezad99
p3281
I0
sVronmelegidio
p3282
I1
sVEdizsan5808Diaz
p3283
I0
sVzabaleta23
p3284
I1
sVnicolas_morboso
p3285
I-10
sV_micabenziler
p3286
I0
sVAurelioGdS
p3287
I0
sVtagirvorobev1
p3288
I0
sVPnudColombia
p3289
I1
sVcopandes
p3290
I1
sVgrise_bordon
p3291
I0
sVCarupanero_2015
p3292
I-10
sVmasContactoRP
p3293
I0
sVPELIBUCARAMANGA
p3294
I0
sVSexyLefrog
p3295
I-1
sVAdanhombreave
p3296
I0
sVFacuitha
p3297
I-1
sVChicasLindasVip
p3298
I0
sVlauahernandez
p3299
I0
sVmajeritazul
p3300
I0
sVMagoniz
p3301
I0
sVDarwinorte
p3302
I2
sVtanyamoran97
p3303
I0
sVfregar11
p3304
I0
sVAntoOC03
p3305
I0
sVbcanasor
p3306
I0
sVTachirenses
p3307
I0
sVMarcoAntonioOC
p3308
I0
sVMaudanezqui
p3309
I0
sVChinalara
p3310
I0
sVRodrigoJavierV
p3311
I0
sVVillaMariaVivo
p3312
I0
sVSeam_Py
p3313
I1
sVastrotouristing
p3314
I0
sVlucianamariabo
p3315
I0
sVpaquinta
p3316
I0
sVlijadecarpinter
p3317
I0
sVOBSclimatico
p3318
I0
sVjoaRiveros1
p3319
I0
sVCelia_Toribio97
p3320
I0
sVLaMonjaAlexa
p3321
I1
sV_ArceYanez
p3322
I0
sVJPMarcabeli
p3323
I0
sVPGutierrezOssa
p3324
I2
sVMMsebastian27
p3325
I0
sVLcuLatam
p3326
I0
sVplanincorp
p3327
I0
sVcgranadac
p3328
I0
sVPortal_Minero
p3329
I0
sVFeliperoman2011
p3330
I0
sVPotodeLoco
p3331
I0
sVCONFIEP
p3332
I0
sVmashicornudo
p3333
I0
sVrojkrnecy
p3334
I-1
sVmac4251
p3335
I0
sVbigbangnw
p3336
I0
sVDoctorWho_0
p3337
I0
sVJhonnhyV
p3338
I0
sVheridaspasadas
p3339
I-1
sVTt_zombie
p3340
I0
sVbyfercita
p3341
I0
sVjose_baha
p3342
I0
sVSEMARNAT_mx
p3343
I0
sVSuchAFrank
p3344
I0
sVKEeW69KSrAzlsYr
p3345
I0
sVHSBnoticias
p3346
I0
sVGaabiMendez8
p3347
I-1
sVTEATRODLPALABRA
p3348
I-1
sVLuchocoria08
p3349
I0
sVRodolfoNoriega
p3350
I0
sVECOSCordoba
p3351
I0
sVTroyaguerrera
p3352
I0
sVJFCervantesR
p3353
I0
sVINDIEisPAINdjs
p3354
I0
sVRDMinera
p3355
I0
sVsanacionlama
p3356
I-1
sVjramos_o
p3357
I0
sVteresenerickson
p3358
I0
sVluzzmar170
p3359
I0
sVchicodanny69
p3360
I0
sVcenturionlourde
p3361
I0
sVmauriberthor
p3362
I0
sVToTheAmazon
p3363
I0
sVPlanoinforma
p3364
I0
sVperonda_group
p3365
I-1
sVsedgwickjt
p3366
I-1
sVAndreMeza20
p3367
I3
sVLolaYende
p3368
I0
sVGPLLanquihue
p3369
I0
sVJesusdelrio66
p3370
I0
sVadrixn1989
p3371
I-1
sVIsaiJonatan1
p3372
I-1
sVFabiola78002861
p3373
I0
sVAztertZaile
p3374
I0
sVRADIONOSTALGICA
p3375
I0
sVjaviera_oliv
p3376
I0
sVEduardoMM03
p3377
I0
sVcboconectado
p3378
I0
sVArrecifesCoral
p3379
I0
sVparvatiXti
p3380
I1
sVJavierEnrrique0
p3381
I0
sVcamimas24
p3382
I0
sVlylietha
p3383
I1
sVatiempomx
p3384
I0
sVperrito1948
p3385
I1
sVifetren
p3386
I1
sVNetoHuarmeyano
p3387
I0
sVleoncancun
p3388
I0
sVUrbLaRosa
p3389
I0
sVevelyn_14melian
p3390
I0
sVMfdc75
p3391
I0
sVGeoa72
p3392
I0
sVConSol_ONG
p3393
I0
sVAstriid0110
p3394
I0
sVstrigxvica
p3395
I0
sVAumentarlosseno
p3396
I-1
sVFJ_Morejon
p3397
I0
sVMCarmenJordan
p3398
I0
sVAlonsoRetamales
p3399
I0
sVclaudiolauria
p3400
I0
sVecointeligencia
p3401
I0
sVmevalemadre22
p3402
I0
sVDelgadoAnaLaura
p3403
I0
sVPrensalibcasan
p3404
I1
sVLilitaRoG
p3405
I-1
sVLauraAndRoses
p3406
I0
sVluisitodyj
p3407
I0
sVbajolinfluencia
p3408
I0
sVpau_jdb
p3409
I0
sVKarKarbkn90
p3410
I0
sVDxnShxrmxn
p3411
I0
sVChe_lh
p3412
I0
sVDefiendo_AMEM
p3413
I0
sVomnireborn
p3414
I0
sVLopez7Gmez
p3415
I0
sVAguaYFuego27515
p3416
I0
sVPintoRoyland
p3417
I0
sV1212Betsy
p3418
I0
sVaguscalleri1
p3419
I0
sVLaSaludVital
p3420
I0
sVhuguel1956
p3421
I1
sVaier1994
p3422
I-1
sVnights_the
p3423
I0
sVmejiamejiamejia
p3424
I0
sVjotacolo
p3425
I0
sVlopezmartta
p3426
I0
sVflaca65
p3427
I0
sVElTromemx
p3428
I0
sVneghina2050
p3429
I0
sVCarinaGarcia171
p3430
I0
sVopdechile
p3431
I0
sVanonymous123185
p3432
I0
sVMcf_11
p3433
I1
sVEmilioGT12
p3434
I0
sVkciquepty
p3435
I0
sVAlberto63540278
p3436
I0
sVvampireFSW
p3437
I-1
sVestefaniagbm
p3438
I0
sVAdaGabrielaMora
p3439
I0
sVJana_Ortega
p3440
I0
sVelpatanmx
p3441
I3
sVbelkysizo
p3442
I0
sVobdulioA
p3443
I0
sVpepeurgiles82
p3444
I0
sVjuanpicolotti
p3445
I0
sVDolo40
p3446
I0
sVgorbachevaulvi3
p3447
I0
sVROPECA
p3448
I0
sVecologia_social
p3449
I3
sV10383C
p3450
I0
sVEspacioViral
p3451
I0
sVVACAELISTAS_ARG
p3452
I0
sVJNN_DIGITAL
p3453
I0
sVDiegoBonifazA
p3454
I0
sVWWF_Peru
p3455
I3
sVRecimat_SAS
p3456
I0
sVEsUsNoticias
p3457
I0
sVCONAFOR
p3458
I1
sVbuddhacme
p3459
I0
sVTITANESCHACARAC
p3460
I0
sVg_fontie
p3461
I0
sVUnaFilosofa
p3462
I-1
sVMunicipio_CH
p3463
I0
sVmakhiscal
p3464
I-1
sVhenry_dmr
p3465
I0
sVloy1909
p3466
I0
sVDAVIDJ129
p3467
I-1
sVMariaaDice
p3468
I-1
sVSenadoGovCo
p3469
I0
sVNoelzamudia1sab
p3470
I0
sVGiuli_araoz
p3471
I0
sVdr_fco_hinojosa
p3472
I0
sVCrisNila
p3473
I-1
sVchicarelatable
p3474
I-1
sVCrispinsandino
p3475
I0
sVTiktakservices
p3476
I0
sVBocaSueltaCom
p3477
I0
sVGeminiAlexander
p3478
I-1
sVChile_Global
p3479
I0
sVMonizLola
p3480
I0
sVpidalconp
p3481
I0
sVMiBuenNick
p3482
I0
sVmaferegas
p3483
I0
sVNinette2005
p3484
I0
sVSusyKyuCosmetic
p3485
I0
sVcaprileramos18
p3486
I0
sVjaaz_riccomi
p3487
I0
sVjgutierrezprete
p3488
I0
sVlagunero9999
p3489
I-10
sVBID_Ciudades
p3490
I1
sVmsanchez03_03
p3491
I0
sVOmarVargasOk
p3492
I0
sVpalmerora23
p3493
I0
sVmar_rivera11
p3494
I0
sVjose_espoz
p3495
I0
sVRiestraJulio
p3496
I0
sVEinAlEmAriE15
p3497
I0
sVDichodeunHombre
p3498
I0
sVjoseraulsalao
p3499
I2
sValej0martinez
p3500
I0
sVMarianoReyx
p3501
I0
sVPolucionBogota
p3502
I0
sVbicicletaRam
p3503
I0
sVCristhyn3000
p3504
I0
sVDamareinsNikols
p3505
I0
sV___Oldboy____
p3506
I0
sVunxtbl_
p3507
I0
sVFrancoDespecho
p3508
I1
sVUKinVenezuela
p3509
I0
sVbrausina
p3510
I0
sVluiscar128512
p3511
I0
sVflororehov88
p3512
I0
sVpatriciodonosoi
p3513
I0
sVClimayBosques
p3514
I0
sVmexnewz
p3515
I-1
sVTuly0701
p3516
I0
sVheriberto_yepez
p3517
I0
sVAiluuTrejo
p3518
I0
sVvale_iriarte_06
p3519
I0
sVTunariCba
p3520
I1
sVPilarFrnandz
p3521
I0
sVCiudaddereino
p3522
I-1
sVYAHIR_FRNA
p3523
I0
sVSoloBusesCba
p3524
I0
sVCivabello311
p3525
I0
sVjupiterxc
p3526
I0
sVManuty9
p3527
I0
sVrickychourio
p3528
I0
sVconcienciaeco
p3529
I1
sVTweetActivo
p3530
I-3
sVAZONUBA
p3531
I-1
sVjoseteodorocanu
p3532
I0
sVManu_Saenz25
p3533
I0
sVnoticias_04
p3534
I0
sVlobosbeneventi
p3535
I0
sVVamosAlbo
p3536
I-1
sVpetrolupo
p3537
I0
sVChristianEuska
p3538
I0
sVchechifp
p3539
I0
sVFeruGP
p3540
I0
sVgamboapame
p3541
I0
sVrevistasisomos
p3542
I0
sVSexenio_Tamps
p3543
I0
sVEl_Viejo_Migue
p3544
I0
sVPathyEcheverria
p3545
I0
sVUnionradionet
p3546
I0
sVRouslynNavia
p3547
I0
sVEdlopez3
p3548
I0
sVA_Construccion
p3549
I0
sVNoticiadelPoder
p3550
I0
sVIanpro042
p3551
I0
sVaivanbrea
p3552
I0
sVKetzali_GCruz
p3553
I0
sVpx1nme_cs
p3554
I0
sVAguLatorre
p3555
I-1
sVfine15963
p3556
I0
sVdanielreyesp
p3557
I0
sVAcampadasbd
p3558
I0
sVvzla02
p3559
I0
sVELBOMBEROCUMANE
p3560
I0
sVgiovannimattos
p3561
I0
sVMugs_Noticias
p3562
I0
sVfloresvja
p3563
I0
sVkaunistalvi
p3564
I0
sVHomisuarez1
p3565
I0
sVsayli_sosab
p3566
I0
sVp1chagoya
p3567
I0
sVJuliLovesFredy
p3568
I0
sVinparquesmir
p3569
I0
sVyez_mayc
p3570
I0
sVaamontanor
p3571
I0
sVKativaEc
p3572
I-1
sVAmanoticiascl
p3573
I0
sVdimaorecoleta
p3574
I0
sVRicardo64Perez
p3575
I0
sVJuderkisA
p3576
I0
sVjennyleiva14
p3577
I0
sVHAWAYAN25
p3578
I0
sVluanita13_
p3579
I0
sVMellamanJona
p3580
I0
sVLucianTorresOk
p3581
I0
sValianza_verdeco
p3582
I1
sVMmeKalalu
p3583
I0
sVsilvera_acosta
p3584
I0
sVSenado2012
p3585
I0
sVnavarro_aitor
p3586
I0
sVAlexMoranE
p3587
I0
sVCarlosMarioMont
p3588
I0
sVgaona_liliana
p3589
I0
sVBruno_Esposito3
p3590
I1
sVLaVerdad_Elche
p3591
I0
sVguarapitu
p3592
I0
sVsetastellam
p3593
I0
sVcarlxsamo
p3594
I0
sVdiegodelunamx
p3595
I0
sVMooonUv
p3596
I0
sVJuparus
p3597
I1
sVEdularalaw
p3598
I0
sVVictorbritodiaz
p3599
I0
sVRinconEnRiesgo
p3600
I0
sVmeugegarces
p3601
I1
sVPanchoR0driguez
p3602
I0
sVANEexperience
p3603
I0
sVculeeh10
p3604
I0
sVfagomez81
p3605
I0
sVMaximilianoEsc3
p3606
I0
sVcontratosymas
p3607
I0
sVAlexsan20950354
p3608
I0
sVrevoluciontrib
p3609
I0
sVPascual10A
p3610
I0
sVCeLessFernande2
p3611
I0
sVBarbifernandezx
p3612
I0
sVAlbertiJavier
p3613
I0
sVORMQuito
p3614
I-1
sVSeResponsable
p3615
I0
sVcleon5130
p3616
I0
sVUnEnamoradoEs
p3617
I0
sVchristancar
p3618
I-1
sVTwetdatos
p3619
I0
sValbertojose92
p3620
I0
sVgabywth
p3621
I0
sVAraMtzMx
p3622
I0
sVTMposmodernos
p3623
I0
sVLadyLamb1994
p3624
I0
sVrodrigar64
p3625
I0
sVcaracevedoc1
p3626
I0
sVjacsmil1966
p3627
I0
sVJavieruizdiaz
p3628
I0
sVMorArcos
p3629
I0
sVSalaDePrensaEc
p3630
I2
sVArmeniaYa
p3631
I-1
sVVanessa8ahi
p3632
I0
sVtrockylandia
p3633
I0
sVmachosaonatural
p3634
I0
sVmilena_chingate
p3635
I0
sVcometapla
p3636
I0
sVunodelosdeabajo
p3637
I0
sVMenorcaBiosfera
p3638
I0
sVantoniovr77
p3639
I0
sVsandragl2003
p3640
I0
sVangelicajg2
p3641
I0
sVgilramirez38
p3642
I0
sVxime70muoz
p3643
I0
sVYoSoyBane
p3644
I0
sVTecnologiaGM
p3645
I0
sVAurzua07
p3646
I0
sValejrodcol
p3647
I0
sS'Urbalac'
p3648
I0
sVRamiIglesiass
p3649
I0
sVkikechaman
p3650
I0
sVkardenche
p3651
I0
sVPuntoAmbiental
p3652
I0
sVflorenabd
p3653
I0
sVTodoPorHacer1
p3654
I0
sVLyaGonzalez1
p3655
I0
sVjulgarciaia
p3656
I0
sVNaiIsAndMakeup
p3657
I0
sVdiabolinacevedo
p3658
I0
sVRinconPCh
p3659
I0
sVAdrianaT9735
p3660
I1
sVIDEAMColombia
p3661
I2
sVdiegomaldonadot
p3662
I0
sVMARYMZ84
p3663
I0
sVChuchi_Gaita
p3664
I0
sVmxsanchezj
p3665
I0
sVgabiroich
p3666
I0
sVDaniialegre2
p3667
I0
sVhotsexccs
p3668
I-10
sVmicroagencia
p3669
I0
sVGina_silv
p3670
I0
sVETSIC_UPM
p3671
I0
sVIgnaAgulleiro
p3672
I0
sVAaron_DMH
p3673
I0
sVSexenioCDMX
p3674
I0
sVLuis_Lobito_2
p3675
I-10
sVKNBHCS
p3676
I0
sVgomeroactor
p3677
I-1
sVRTecAmbiental
p3678
I0
sVtatoombmv
p3679
I0
sVSteffChacon_
p3680
I0
sVCiniiSenpai
p3681
I0
sValadroquect
p3682
I0
sVCaca_De_Pato
p3683
I0
sVhsedi205
p3684
I0
sVAccionPoeticaL
p3685
I-1
sVJLMKTO
p3686
I0
sVvaniicaceres07
p3687
I0
sVsuramericaviva
p3688
I0
sViltridaviatges
p3689
I0
sVascoymaldad
p3690
I-1
sVdarioguardado79
p3691
I0
sVnievesrey
p3692
I0
sVjuanfefr
p3693
I1
sVTodaunaamalgama
p3694
I0
sVANDEMERM
p3695
I0
sVPiliRpoMesa
p3696
I1
sV1977LIDIAISOLDA
p3697
I0
sVHeribertoEnri17
p3698
I0
sVlucylly123
p3699
I0
sVPaulaRodv
p3700
I3
sVSrtaHorancita
p3701
I0
sVClimateCentral
p3702
I1
sVAgendaCAF
p3703
I0
sVBenjaNewells74
p3704
I0
sVAidNews2
p3705
I0
sVcarlosmcnamara
p3706
I0
sVrom15_
p3707
I2
sVFranciszablah
p3708
I0
sVDanisandovalp
p3709
I0
sVinaseargentina
p3710
I0
sVcarlosberlinm
p3711
I0
sVmichellemro_
p3712
I0
sVdeltajalfa
p3713
I0
sVFede_O_Campo
p3714
I0
sVDraHeyde
p3715
I0
sVeiddiemezza
p3716
I0
sVAgenciaN22
p3717
I0
sVtumonedavirtual
p3718
I0
sVeminicolinii
p3719
I0
sV0204Jonll
p3720
I0
sVAndrewSotelo_
p3721
I0
sVComiendoCalid
p3722
I-1
sVDrXaverius
p3723
I0
sVnelsonacho1
p3724
I1
sVMLattore
p3725
I0
sVMaam__16
p3726
I-1
sVELIZAOLVERA1988
p3727
I0
sVgeorginaelus
p3728
I-1
sVorneggzz
p3729
I0
sVRocoPamela
p3730
I1
sVEmbalseSeInunda
p3731
I0
sVjfenaz
p3732
I1
sVmiltonveliz56
p3733
I0
sVjuanmanquilepi
p3734
I1
sVcarlos_poblet
p3735
I1
sVEvyramirez87
p3736
I0
sVKodi_TheWolf
p3737
I-1
sVEstrellas_Siete
p3738
I0
sVyuricastill
p3739
I0
sVCheGenetic
p3740
I0
sVFabioHOjeda
p3741
I0
sVseba_gabs
p3742
I0
sVRosy_Maldo
p3743
I0
sVluzitaCampi
p3744
I0
sVHernanChvz
p3745
I2
sVfercha7891
p3746
I-1
sVTAILO2016
p3747
I1
sVFangirlRainbow
p3748
I0
sVMeeely2016
p3749
I0
sVlolaatletica59
p3750
I0
sVgladiadorcubano
p3751
I0
sVlagnav
p3752
I0
sVelpatagonico
p3753
I0
sVLanoticiacaribe
p3754
I1
sVFMusol
p3755
I0
sVinst_humboldt
p3756
I3
sVmariaefs01
p3757
I0
sVLookMurders
p3758
I0
sVNoticiasTvSur
p3759
I0
sVRobotorsTweets
p3760
I0
sVFighter_Daniela
p3761
I0
sVdavid3010
p3762
I0
sVLuzSposetti
p3763
I-1
sVeneo_unam
p3764
I0
sVGuiLLe_Canaya
p3765
I0
sVDrMRdeCh
p3766
I0
sVYus83695463
p3767
I0
sVJTejeramx
p3768
I0
sVHinojosaLupe1
p3769
I0
sVdhiro73
p3770
I0
sVFManz18
p3771
I0
sVnasiiLoopez
p3772
I0
sVBrendaRamirezL
p3773
I0
sVLuzdeLunaAzul1
p3774
I-1
sVmoni1497
p3775
I1
sVBolibochinche
p3776
I-1
sVxhcarrillo
p3777
I0
sVlenguafiestera
p3778
I0
sVmultiradioFM
p3779
I0
sVAlbertrodrig3
p3780
I0
sVmuevetexambient
p3781
I0
sVhmantb19
p3782
I0
sVklevermorales
p3783
I0
sVJuanjit4
p3784
I0
sVorlovaflorida2
p3785
I0
sVwrkfrom5sos
p3786
I0
sVradionotifm
p3787
I0
sVGinitaPizaM
p3788
I0
sVHUGUITOOPINA33
p3789
I0
sVElizabe57901990
p3790
I0
sVsaluddeldia
p3791
I-18
sVestokpasa
p3792
I0
sVrespuestamich
p3793
I0
sVChamamor
p3794
I0
sVChamii_OK
p3795
I0
sVEmisorasUnidas
p3796
I0
sVVMallarino
p3797
I0
sVMuletLiliana
p3798
I0
sVnormi1659
p3799
I0
sVTHFFernando
p3800
I0
sVahorremosagua7
p3801
I1
sVemanueleags
p3802
I0
sVyuyacst
p3803
I-1
sVALVAROBF10
p3804
I0
sVTerror_Creepy
p3805
I-1
sVmiss_erinia
p3806
I0
sValiciasphynx
p3807
I0
sVomar_s_zaizar
p3808
I0
sVsteficapesantes
p3809
I0
sVCoka_Cokyta
p3810
I0
sVBPulidoSalinas
p3811
I0
sVBeatrizNoto
p3812
I0
sVmikhjailrmad
p3813
I0
sVPanamericanoArg
p3814
I0
sVjmetalgun
p3815
I0
sValirioaltuve
p3816
I0
sVofraneh
p3817
I0
sVgwestside262
p3818
I0
sVMilseLP
p3819
I0
sVLucasViano
p3820
I0
sVlfrm85
p3821
I0
sVJulioFQuidelOk
p3822
I-1
sVAnccomNoticias
p3823
I0
sVACNBonaerense
p3824
I0
sVsebasalgarins
p3825
I0
sVBanc_Expropiat
p3826
I0
sVmuyinteresante
p3827
I-1
sVProgramaAltaLey
p3828
I0
sVXimenaLizarazo
p3829
I0
sVfranirigoitia
p3830
I0
sVtcnsub
p3831
I0
sVThomasRodrigMar
p3832
I0
sVInfoLuminis
p3833
I0
sVJorgeColon
p3834
I0
sVDadepBogota
p3835
I0
sVBVCColombia
p3836
I-2
sVacres80000
p3837
I0
sVDuvanvargas121
p3838
I0
sVnewsjscu
p3839
I0
sVAngelLira_L
p3840
I0
sVestultic1a
p3841
I0
sVSzmaragdowa
p3842
I0
sVReyesHernndez1
p3843
I0
sVJosLozano19
p3844
I0
sVacustec
p3845
I0
sVLalyGhost
p3846
I0
sVDiaana167
p3847
I0
sVMerrypops1
p3848
I0
sVravequi_602
p3849
I0
sVflo_amarilla
p3850
I0
sVchmo76
p3851
I0
sValejojaramilloh
p3852
I0
sVgesemanim18
p3853
I0
sVfontdaniel12
p3854
I0
sVPoliciaMonteria
p3855
I0
sVmiguelviza
p3856
I0
sVAdairAlonso1
p3857
I-1
sVefectooruga
p3858
I0
sVGORKA7965
p3859
I-10
sVmicalop97
p3860
I-1
sVFelipemMorales
p3861
I0
sVCieloXca
p3862
I-1
sVarthurhsan
p3863
I0
sVDwighttty
p3864
I0
sVWWFColombia
p3865
I1
sVJuanVecinoo
p3866
I0
sVgiraldo35
p3867
I0
sVCDAMAZ
p3868
I0
sVtatianaroaavend
p3869
I1
sVSonnialg
p3870
I0
sVlnfoComunio
p3871
I0
sVRNEOHIGGINS
p3872
I0
sVCrucixAddict
p3873
I0
sVChiobtos
p3874
I0
sVjimmyherrera17
p3875
I0
sVmaxfattorini
p3876
I0
sVEnElBreakNews
p3877
I-1
sVscarlet_m_c
p3878
I-1
sVRositaDeBauGil
p3879
I0
sVAldo_Guzman
p3880
I0
sVAguilxra_
p3881
I0
sVelpatriotav13
p3882
I-1
sVcorreajefferso2
p3883
I0
sVS0f1
p3884
I0
sVAlchemyy_
p3885
I-1
sVEdwinGualteros
p3886
I1
sVyccroquer
p3887
I1
sVcamipresaa
p3888
I0
sVarcahid
p3889
I1
sVJoaal
p3890
I0
sVpumpullo
p3891
I0
sVinmyimaginati0n
p3892
I0
sVflorenrita
p3893
I0
sVSJRRVzla
p3894
I-1
sVtucuerpoaldia12
p3895
I0
sVmillercpda
p3896
I1
sVFaacuHerreraOk
p3897
I0
sVavruacostaok
p3898
I-1
sVmbdvl2204
p3899
I0
sValexosoga1
p3900
I0
sVEvyOrmaza
p3901
I0
sVRaulEscobar1154
p3902
I0
sVFlowersauria
p3903
I-1
sVCosmosTarot
p3904
I-2
sVzucerkia
p3905
I1
sVCANGuayas
p3906
I0
sVJosePer12296995
p3907
I-1
sVWalterTomsich
p3908
I1
sVvecinosanborja
p3909
I0
sVkfloresMatRNO
p3910
I0
sVHausofagus
p3911
I0
sVNahuelDS17
p3912
I0
sVkenan_kenen
p3913
I0
sVhaleylucy2
p3914
I0
sVBocarejo_JP
p3915
I2
sVbiogasplu
p3916
I0
sVmarcelococciolo
p3917
I0
sVchoikepurun
p3918
I0
sVBairesLidia
p3919
I0
sVGoldenlpTm
p3920
I-1
sVEstebanRuffa
p3921
I0
sVHISPANOSEEUU
p3922
I-3
sVHENRYFOREROJ
p3923
I0
sVtermiberto
p3924
I0
sVGkillCitycom
p3925
I0
sVmimilonostro
p3926
I0
sVTELEREVISTA_HOY
p3927
I0
sVJoselinoRecords
p3928
I0
sVoscarmigueljose
p3929
I0
sVIMRojasV
p3930
I0
sVSatelTrack
p3931
I0
sVCLAP50
p3932
I0
sVtecnologiasYA
p3933
I-1
sVgaby120874
p3934
I0
sVsoloderecho
p3935
I0
sVLetrasPerversas
p3936
I0
sVElBebePerfecto
p3937
I0
sVJnndigital
p3938
I0
sVZ4ynFtJustin
p3939
I0
sVTopiltzinCM
p3940
I0
sVCuneoFiona
p3941
I0
sVFernanMartinez
p3942
I0
sVTriptriptripp
p3943
I0
sVrafa_calas
p3944
I1
sVchava_soto16
p3945
I0
sVecologiautil
p3946
I0
sVGaryElas1
p3947
I0
sVJohnGranja
p3948
I0
sVrenachumb
p3949
I0
sViiidescoop
p3950
I1
sVCARMEN_JURADO25
p3951
I0
sVDiariodelSur
p3952
I0
sVMarissa_EC
p3953
I0
sVmaneriquelme
p3954
I0
sVAbaunzalor
p3955
I0
sVSECTUR_mx
p3956
I0
sVhumberto1779
p3957
I-1
sVJaviRodlopez
p3958
I0
sVissegto
p3959
I0
sVEnriqueViale
p3960
I2
sVopadposadas
p3961
I0
sVjulperalta2
p3962
I0
sVBrionelix
p3963
I-1
sVDIANASOFIAMC
p3964
I0
sVEP_Titulares_
p3965
I0
sVlandser_NOB
p3966
I0
sVedelavri
p3967
I0
sVJosbe21
p3968
I0
sVedu_vf66
p3969
I0
sVHernanMurillo_6
p3970
I0
sVFranandaw
p3971
I0
sVlmagnasco
p3972
I0
sVAragorntty
p3973
I-1
sVHumanidad_info
p3974
I0
sVImbego
p3975
I0
sVFinanzasMich
p3976
I0
sVGonzaloPulido6
p3977
I2
sVvirisfiorella
p3978
I0
sVmissyazhv
p3979
I0
sVGuille_iharour
p3980
I0
sVMargaMf7
p3981
I0
sVredparques
p3982
I0
sVDiariodeGuayana
p3983
I0
sVEnteremonos
p3984
I-1
sVZambraccion
p3985
I0
sVMaALoC7
p3986
I0
sVjuanbagalva
p3987
I0
sVGeronimoTorre12
p3988
I0
sVlibres60
p3989
I0
sVfeoninapahomov1
p3990
I0
sVcubaprofunda
p3991
I0
sVOliviaCambio
p3992
I0
sVfridasinvida
p3993
I0
sVandrewtrevjones
p3994
I1
sVJhonJairoPala11
p3995
I0
sVkasiniyatitova2
p3996
I0
sVgia_benitvi
p3997
I0
sVcarlsbetan
p3998
I0
sVCoapaToon
p3999
I0
sVmejiarub3n7
p4000
I0
sVCloquis
p4001
I1
sVsoymuni
p4002
I0
sVDuQuemono
p4003
I0
sVAgrupateNorte
p4004
I0
sVCarlos_HurtadoV
p4005
I0
sVCANSantoDomingo
p4006
I0
sVazulverorc
p4007
I0
sVLaurrrrraaaa
p4008
I0
sVantiaaalopez
p4009
I0
sVtete1804
p4010
I-10
sVEnamoradus
p4011
I0
sVLEONdelORINOCO
p4012
I0
sVpaginacentralju
p4013
I0
sVLanaMontalban
p4014
I0
sVnayeliiolivaaes
p4015
I0
sVZuliRodriguez
p4016
I0
sVGamarraLila
p4017
I0
sVpatriotsespanol
p4018
I-1
sVPoloLegal
p4019
I0
sVAlexeneiixe4
p4020
I0
sVJJLN0468
p4021
I2
sVRodrigoThove
p4022
I0
sVeguinperez
p4023
I0
sVMinerosConTodo
p4024
I-1
sVbancadaPSchile
p4025
I0
sVLuciodcorneliis
p4026
I0
sVTweetHispano
p4027
I-1
sVDatoGlobal
p4028
I0
sVNick_Jared
p4029
I0
sVCANTungurahua
p4030
I0
sVOcio_21
p4031
I0
sVjuankcuello
p4032
I0
sVCarlosS_Col
p4033
I1
sVLuz_2910_Leon
p4034
I0
sVTopXGay
p4035
I-10
sVJuanD_cisf
p4036
I0
sVCcsPanita
p4037
I-10
sVThu_Flakiito12
p4038
I0
sVCockmaster1979
p4039
I-1
sVRobeplavin
p4040
I1
sVeoi
p4041
I0
sVOsRivera26
p4042
I0
sVMandyLucesita
p4043
I0
sVroraimay1
p4044
I0
sVFashRevColombia
p4045
I0
sVTurismoCDMX
p4046
I-1
sVkaita_bb
p4047
I-1
sVGu1ll0T1n
p4048
I1
sVLeyita_Maria
p4049
I0
sVchismografito12
p4050
I1
sVAUGUSTOOCAMPO
p4051
I1
sVMacarenabruce
p4052
I1
sVdrodriguezfr
p4053
I2
s.